Component: ARM Compiler 5.05 update 1 (build 106) Tool: armlink [4d0efa]

==============================================================================

Section Cross References

    usbh_msc_bot.o(i.USBH_MSC_BOT_Abort) refers to usbh_ctlreq.o(i.USBH_ClrFeature) for USBH_ClrFeature
    usbh_msc_bot.o(i.USBH_MSC_BOT_Process) refers to usbh_ioreq.o(i.USBH_BulkSendData) for USBH_BulkSendData
    usbh_msc_bot.o(i.USBH_MSC_BOT_Process) refers to usbh_conf.o(i.USBH_LL_GetURBState) for USBH_LL_GetURBState
    usbh_msc_bot.o(i.USBH_MSC_BOT_Process) refers to usbh_ioreq.o(i.USBH_BulkReceiveData) for USBH_BulkReceiveData
    usbh_msc_bot.o(i.USBH_MSC_BOT_Process) refers to usbh_conf.o(i.USBH_LL_GetLastXferSize) for USBH_LL_GetLastXferSize
    usbh_msc_bot.o(i.USBH_MSC_BOT_Process) refers to cmsis_os.o(i.osMessagePut) for osMessagePut
    usbh_msc_bot.o(i.USBH_MSC_BOT_Process) refers to usbh_msc_bot.o(i.USBH_MSC_BOT_Abort) for USBH_MSC_BOT_Abort
    usbh_msc_bot.o(i.USBH_MSC_BOT_Process) refers to usbh_conf.o(i.USBH_LL_GetToggle) for USBH_LL_GetToggle
    usbh_msc_bot.o(i.USBH_MSC_BOT_Process) refers to usbh_conf.o(i.USBH_LL_SetToggle) for USBH_LL_SetToggle
    usbh_msc_bot.o(i.USBH_MSC_BOT_Process) refers to usbh_msc_bot.o(i.USBH_MSC_BOT_REQ_Reset) for USBH_MSC_BOT_REQ_Reset
    usbh_msc_bot.o(i.USBH_MSC_BOT_REQ_GetMaxLUN) refers to usbh_ctlreq.o(i.USBH_CtlReq) for USBH_CtlReq
    usbh_msc_bot.o(i.USBH_MSC_BOT_REQ_Reset) refers to usbh_ctlreq.o(i.USBH_CtlReq) for USBH_CtlReq
    usbh_hid.o(i.USBH_HID_ClassRequest) refers to usbh_hid.o(i.USBH_HID_GetHIDDescriptor) for USBH_HID_GetHIDDescriptor
    usbh_hid.o(i.USBH_HID_ClassRequest) refers to usbh_hid.o(i.USBH_HID_GetHIDReportDescriptor) for USBH_HID_GetHIDReportDescriptor
    usbh_hid.o(i.USBH_HID_ClassRequest) refers to usbh_hid.o(i.USBH_HID_SetIdle) for USBH_HID_SetIdle
    usbh_hid.o(i.USBH_HID_ClassRequest) refers to usbh_hid.o(i.USBH_HID_SetProtocol) for USBH_HID_SetProtocol
    usbh_hid.o(i.USBH_HID_GetHIDDescriptor) refers to usbh_ctlreq.o(i.USBH_GetDescriptor) for USBH_GetDescriptor
    usbh_hid.o(i.USBH_HID_GetHIDReportDescriptor) refers to usbh_ctlreq.o(i.USBH_GetDescriptor) for USBH_GetDescriptor
    usbh_hid.o(i.USBH_HID_GetReport) refers to usbh_ctlreq.o(i.USBH_CtlReq) for USBH_CtlReq
    usbh_hid.o(i.USBH_HID_InterfaceDeInit) refers to usbh_pipes.o(i.USBH_ClosePipe) for USBH_ClosePipe
    usbh_hid.o(i.USBH_HID_InterfaceDeInit) refers to usbh_pipes.o(i.USBH_FreePipe) for USBH_FreePipe
    usbh_hid.o(i.USBH_HID_InterfaceDeInit) refers to malloc.o(i.free) for free
    usbh_hid.o(i.USBH_HID_InterfaceInit) refers to usbh_core.o(i.USBH_FindInterface) for USBH_FindInterface
    usbh_hid.o(i.USBH_HID_InterfaceInit) refers to usbh_core.o(i.USBH_SelectInterface) for USBH_SelectInterface
    usbh_hid.o(i.USBH_HID_InterfaceInit) refers to malloc.o(i.malloc) for malloc
    usbh_hid.o(i.USBH_HID_InterfaceInit) refers to usbh_pipes.o(i.USBH_AllocPipe) for USBH_AllocPipe
    usbh_hid.o(i.USBH_HID_InterfaceInit) refers to usbh_pipes.o(i.USBH_OpenPipe) for USBH_OpenPipe
    usbh_hid.o(i.USBH_HID_InterfaceInit) refers to usbh_conf.o(i.USBH_LL_SetToggle) for USBH_LL_SetToggle
    usbh_hid.o(i.USBH_HID_InterfaceInit) refers to usbh_hid_keybd.o(i.USBH_HID_KeybdInit) for USBH_HID_KeybdInit
    usbh_hid.o(i.USBH_HID_InterfaceInit) refers to usbh_hid_mouse.o(i.USBH_HID_MouseInit) for USBH_HID_MouseInit
    usbh_hid.o(i.USBH_HID_Process) refers to usbh_hid.o(i.USBH_HID_GetReport) for USBH_HID_GetReport
    usbh_hid.o(i.USBH_HID_Process) refers to usbh_hid.o(i.fifo_write) for fifo_write
    usbh_hid.o(i.USBH_HID_Process) refers to cmsis_os.o(i.osMessagePut) for osMessagePut
    usbh_hid.o(i.USBH_HID_Process) refers to usbh_ioreq.o(i.USBH_InterruptReceiveData) for USBH_InterruptReceiveData
    usbh_hid.o(i.USBH_HID_Process) refers to usbh_conf.o(i.USBH_LL_GetURBState) for USBH_LL_GetURBState
    usbh_hid.o(i.USBH_HID_Process) refers to usbh_hid.o(i.USBH_HID_EventCallback) for USBH_HID_EventCallback
    usbh_hid.o(i.USBH_HID_Process) refers to usbh_ctlreq.o(i.USBH_ClrFeature) for USBH_ClrFeature
    usbh_hid.o(i.USBH_HID_SOFProcess) refers to cmsis_os.o(i.osMessagePut) for osMessagePut
    usbh_hid.o(i.USBH_HID_SetIdle) refers to usbh_ctlreq.o(i.USBH_CtlReq) for USBH_CtlReq
    usbh_hid.o(i.USBH_HID_SetProtocol) refers to usbh_ctlreq.o(i.USBH_CtlReq) for USBH_CtlReq
    usbh_hid.o(i.USBH_HID_SetReport) refers to usbh_ctlreq.o(i.USBH_CtlReq) for USBH_CtlReq
    usbh_hid.o(.data) refers to usbh_hid.o(.conststring) for .conststring
    usbh_hid.o(.data) refers to usbh_hid.o(i.USBH_HID_InterfaceInit) for USBH_HID_InterfaceInit
    usbh_hid.o(.data) refers to usbh_hid.o(i.USBH_HID_InterfaceDeInit) for USBH_HID_InterfaceDeInit
    usbh_hid.o(.data) refers to usbh_hid.o(i.USBH_HID_ClassRequest) for USBH_HID_ClassRequest
    usbh_hid.o(.data) refers to usbh_hid.o(i.USBH_HID_Process) for USBH_HID_Process
    usbh_hid.o(.data) refers to usbh_hid.o(i.USBH_HID_SOFProcess) for USBH_HID_SOFProcess
    usbh_msc_scsi.o(i.USBH_MSC_SCSI_Inquiry) refers to usbh_msc_bot.o(i.USBH_MSC_BOT_Process) for USBH_MSC_BOT_Process
    usbh_msc_scsi.o(i.USBH_MSC_SCSI_Inquiry) refers to memseta.o(.text) for __aeabi_memclr
    usbh_msc_scsi.o(i.USBH_MSC_SCSI_Inquiry) refers to memcpya.o(.text) for __aeabi_memcpy
    usbh_msc_scsi.o(i.USBH_MSC_SCSI_Read) refers to usbh_msc_bot.o(i.USBH_MSC_BOT_Process) for USBH_MSC_BOT_Process
    usbh_msc_scsi.o(i.USBH_MSC_SCSI_Read) refers to memseta.o(.text) for __aeabi_memclr
    usbh_msc_scsi.o(i.USBH_MSC_SCSI_ReadCapacity) refers to memseta.o(.text) for __aeabi_memclr
    usbh_msc_scsi.o(i.USBH_MSC_SCSI_ReadCapacity) refers to usbh_msc_bot.o(i.USBH_MSC_BOT_Process) for USBH_MSC_BOT_Process
    usbh_msc_scsi.o(i.USBH_MSC_SCSI_RequestSense) refers to usbh_msc_bot.o(i.USBH_MSC_BOT_Process) for USBH_MSC_BOT_Process
    usbh_msc_scsi.o(i.USBH_MSC_SCSI_RequestSense) refers to memseta.o(.text) for __aeabi_memclr
    usbh_msc_scsi.o(i.USBH_MSC_SCSI_TestUnitReady) refers to usbh_msc_bot.o(i.USBH_MSC_BOT_Process) for USBH_MSC_BOT_Process
    usbh_msc_scsi.o(i.USBH_MSC_SCSI_TestUnitReady) refers to memseta.o(.text) for __aeabi_memclr
    usbh_msc_scsi.o(i.USBH_MSC_SCSI_Write) refers to usbh_msc_bot.o(i.USBH_MSC_BOT_Process) for USBH_MSC_BOT_Process
    usbh_msc_scsi.o(i.USBH_MSC_SCSI_Write) refers to memseta.o(.text) for __aeabi_memclr
    usbh_pipes.o(i.USBH_ClosePipe) refers to usbh_conf.o(i.USBH_LL_ClosePipe) for USBH_LL_ClosePipe
    usbh_pipes.o(i.USBH_OpenPipe) refers to usbh_conf.o(i.USBH_LL_OpenPipe) for USBH_LL_OpenPipe
    usbh_ioreq.o(i.USBH_BulkReceiveData) refers to usbh_conf.o(i.USBH_LL_SubmitURB) for USBH_LL_SubmitURB
    usbh_ioreq.o(i.USBH_BulkSendData) refers to usbh_conf.o(i.USBH_LL_SubmitURB) for USBH_LL_SubmitURB
    usbh_ioreq.o(i.USBH_CtlReceiveData) refers to usbh_conf.o(i.USBH_LL_SubmitURB) for USBH_LL_SubmitURB
    usbh_ioreq.o(i.USBH_CtlSendData) refers to usbh_conf.o(i.USBH_LL_SubmitURB) for USBH_LL_SubmitURB
    usbh_ioreq.o(i.USBH_CtlSendSetup) refers to usbh_conf.o(i.USBH_LL_SubmitURB) for USBH_LL_SubmitURB
    usbh_ioreq.o(i.USBH_InterruptReceiveData) refers to usbh_conf.o(i.USBH_LL_SubmitURB) for USBH_LL_SubmitURB
    usbh_ioreq.o(i.USBH_InterruptSendData) refers to usbh_conf.o(i.USBH_LL_SubmitURB) for USBH_LL_SubmitURB
    usbh_ioreq.o(i.USBH_IsocReceiveData) refers to usbh_conf.o(i.USBH_LL_SubmitURB) for USBH_LL_SubmitURB
    usbh_ioreq.o(i.USBH_IsocSendData) refers to usbh_conf.o(i.USBH_LL_SubmitURB) for USBH_LL_SubmitURB
    usbh_hid_mouse.o(i.USBH_HID_GetMouseInfo) refers to usbh_hid_mouse.o(i.USBH_HID_MouseDecode) for USBH_HID_MouseDecode
    usbh_hid_mouse.o(i.USBH_HID_GetMouseInfo) refers to usbh_hid_mouse.o(.data) for .data
    usbh_hid_mouse.o(i.USBH_HID_MouseDecode) refers to usbh_hid.o(i.fifo_read) for fifo_read
    usbh_hid_mouse.o(i.USBH_HID_MouseDecode) refers to usbh_hid_parser.o(i.HID_ReadItem) for HID_ReadItem
    usbh_hid_mouse.o(i.USBH_HID_MouseDecode) refers to usbh_hid_mouse.o(.data) for .data
    usbh_hid_mouse.o(i.USBH_HID_MouseDecode) refers to usbh_hid_mouse.o(.constdata) for .constdata
    usbh_hid_mouse.o(i.USBH_HID_MouseInit) refers to usbh_hid.o(i.fifo_init) for fifo_init
    usbh_hid_mouse.o(i.USBH_HID_MouseInit) refers to usbh_hid_mouse.o(.data) for .data
    usbh_hid_mouse.o(.constdata) refers to usbh_hid_mouse.o(.data) for mouse_report_data
    usbh_mtp.o(i.USBH_MTP_ClassRequest) refers to cmsis_os.o(i.osMessagePut) for osMessagePut
    usbh_mtp.o(i.USBH_MTP_DeleteObject) refers to usbh_mtp_ptp.o(i.USBH_PTP_DeleteObject) for USBH_PTP_DeleteObject
    usbh_mtp.o(i.USBH_MTP_Events) refers to usbh_ioreq.o(i.USBH_InterruptReceiveData) for USBH_InterruptReceiveData
    usbh_mtp.o(i.USBH_MTP_Events) refers to usbh_conf.o(i.USBH_LL_GetURBState) for USBH_LL_GetURBState
    usbh_mtp.o(i.USBH_MTP_Events) refers to usbh_mtp.o(i.USBH_MTP_EventsCallback) for USBH_MTP_EventsCallback
    usbh_mtp.o(i.USBH_MTP_GetDevicePropDesc) refers to usbh_mtp_ptp.o(i.USBH_PTP_GetDevicePropDesc) for USBH_PTP_GetDevicePropDesc
    usbh_mtp.o(i.USBH_MTP_GetNumObjects) refers to usbh_mtp_ptp.o(i.USBH_PTP_GetNumObjects) for USBH_PTP_GetNumObjects
    usbh_mtp.o(i.USBH_MTP_GetObject) refers to usbh_mtp_ptp.o(i.USBH_PTP_GetObject) for USBH_PTP_GetObject
    usbh_mtp.o(i.USBH_MTP_GetObjectHandles) refers to usbh_mtp_ptp.o(i.USBH_PTP_GetObjectHandles) for USBH_PTP_GetObjectHandles
    usbh_mtp.o(i.USBH_MTP_GetObjectInfo) refers to usbh_mtp_ptp.o(i.USBH_PTP_GetObjectInfo) for USBH_PTP_GetObjectInfo
    usbh_mtp.o(i.USBH_MTP_GetObjectPropDesc) refers to usbh_mtp_ptp.o(i.USBH_PTP_GetObjectPropDesc) for USBH_PTP_GetObjectPropDesc
    usbh_mtp.o(i.USBH_MTP_GetObjectPropList) refers to usbh_mtp_ptp.o(i.USBH_PTP_GetObjectPropList) for USBH_PTP_GetObjectPropList
    usbh_mtp.o(i.USBH_MTP_GetObjectPropsSupported) refers to usbh_mtp_ptp.o(i.USBH_PTP_GetObjectPropsSupported) for USBH_PTP_GetObjectPropsSupported
    usbh_mtp.o(i.USBH_MTP_GetPartialObject) refers to usbh_mtp_ptp.o(i.USBH_PTP_GetPartialObject) for USBH_PTP_GetPartialObject
    usbh_mtp.o(i.USBH_MTP_GetStorageInfo) refers to memcpya.o(.text) for __aeabi_memcpy4
    usbh_mtp.o(i.USBH_MTP_InterfaceDeInit) refers to usbh_pipes.o(i.USBH_ClosePipe) for USBH_ClosePipe
    usbh_mtp.o(i.USBH_MTP_InterfaceDeInit) refers to usbh_pipes.o(i.USBH_FreePipe) for USBH_FreePipe
    usbh_mtp.o(i.USBH_MTP_InterfaceDeInit) refers to malloc.o(i.free) for free
    usbh_mtp.o(i.USBH_MTP_InterfaceInit) refers to usbh_core.o(i.USBH_FindInterface) for USBH_FindInterface
    usbh_mtp.o(i.USBH_MTP_InterfaceInit) refers to usbh_core.o(i.USBH_SelectInterface) for USBH_SelectInterface
    usbh_mtp.o(i.USBH_MTP_InterfaceInit) refers to malloc.o(i.malloc) for malloc
    usbh_mtp.o(i.USBH_MTP_InterfaceInit) refers to usbh_pipes.o(i.USBH_AllocPipe) for USBH_AllocPipe
    usbh_mtp.o(i.USBH_MTP_InterfaceInit) refers to usbh_pipes.o(i.USBH_OpenPipe) for USBH_OpenPipe
    usbh_mtp.o(i.USBH_MTP_InterfaceInit) refers to usbh_conf.o(i.USBH_LL_SetToggle) for USBH_LL_SetToggle
    usbh_mtp.o(i.USBH_MTP_InterfaceInit) refers to usbh_mtp_ptp.o(i.USBH_PTP_Init) for USBH_PTP_Init
    usbh_mtp.o(i.USBH_MTP_Process) refers to usbh_mtp_ptp.o(i.USBH_PTP_OpenSession) for USBH_PTP_OpenSession
    usbh_mtp.o(i.USBH_MTP_Process) refers to usbh_mtp_ptp.o(i.USBH_PTP_GetDeviceInfo) for USBH_PTP_GetDeviceInfo
    usbh_mtp.o(i.USBH_MTP_Process) refers to usbh_mtp_ptp.o(i.USBH_PTP_GetStorageIds) for USBH_PTP_GetStorageIds
    usbh_mtp.o(i.USBH_MTP_Process) refers to usbh_mtp_ptp.o(i.USBH_PTP_GetStorageInfo) for USBH_PTP_GetStorageInfo
    usbh_mtp.o(i.USBH_MTP_Process) refers to cmsis_os.o(i.osMessagePut) for osMessagePut
    usbh_mtp.o(i.USBH_MTP_Process) refers to usbh_mtp.o(i.USBH_MTP_Events) for USBH_MTP_Events
    usbh_mtp.o(i.USBH_MTP_Process) refers to cmsis_os.o(i.osDelay) for osDelay
    usbh_mtp.o(i.USBH_MTP_SendObject) refers to usbh_mtp_ptp.o(i.USBH_PTP_SendObject) for USBH_PTP_SendObject
    usbh_mtp.o(.data) refers to usbh_mtp.o(.conststring) for .conststring
    usbh_mtp.o(.data) refers to usbh_mtp.o(i.USBH_MTP_InterfaceInit) for USBH_MTP_InterfaceInit
    usbh_mtp.o(.data) refers to usbh_mtp.o(i.USBH_MTP_InterfaceDeInit) for USBH_MTP_InterfaceDeInit
    usbh_mtp.o(.data) refers to usbh_mtp.o(i.USBH_MTP_ClassRequest) for USBH_MTP_ClassRequest
    usbh_mtp.o(.data) refers to usbh_mtp.o(i.USBH_MTP_Process) for USBH_MTP_Process
    usbh_mtp.o(.data) refers to usbh_mtp.o(i.USBH_MTP_SOFProcess) for USBH_MTP_SOFProcess
    usbh_cdc.o(i.CDC_ProcessReception) refers to usbh_conf.o(i.USBH_LL_GetURBState) for USBH_LL_GetURBState
    usbh_cdc.o(i.CDC_ProcessReception) refers to usbh_conf.o(i.USBH_LL_GetLastXferSize) for USBH_LL_GetLastXferSize
    usbh_cdc.o(i.CDC_ProcessReception) refers to usbh_ioreq.o(i.USBH_BulkReceiveData) for USBH_BulkReceiveData
    usbh_cdc.o(i.CDC_ProcessReception) refers to usbh_cdc.o(i.USBH_CDC_ReceiveCallback) for USBH_CDC_ReceiveCallback
    usbh_cdc.o(i.CDC_ProcessReception) refers to cmsis_os.o(i.osMessagePut) for osMessagePut
    usbh_cdc.o(i.CDC_ProcessTransmission) refers to usbh_conf.o(i.USBH_LL_GetURBState) for USBH_LL_GetURBState
    usbh_cdc.o(i.CDC_ProcessTransmission) refers to usbh_ioreq.o(i.USBH_BulkSendData) for USBH_BulkSendData
    usbh_cdc.o(i.CDC_ProcessTransmission) refers to usbh_cdc.o(i.USBH_CDC_TransmitCallback) for USBH_CDC_TransmitCallback
    usbh_cdc.o(i.CDC_ProcessTransmission) refers to cmsis_os.o(i.osMessagePut) for osMessagePut
    usbh_cdc.o(i.GetLineCoding) refers to usbh_ctlreq.o(i.USBH_CtlReq) for USBH_CtlReq
    usbh_cdc.o(i.USBH_CDC_ClassRequest) refers to usbh_cdc.o(i.GetLineCoding) for GetLineCoding
    usbh_cdc.o(i.USBH_CDC_GetLastReceivedDataSize) refers to usbh_conf.o(i.USBH_LL_GetLastXferSize) for USBH_LL_GetLastXferSize
    usbh_cdc.o(i.USBH_CDC_InterfaceDeInit) refers to usbh_pipes.o(i.USBH_ClosePipe) for USBH_ClosePipe
    usbh_cdc.o(i.USBH_CDC_InterfaceDeInit) refers to usbh_pipes.o(i.USBH_FreePipe) for USBH_FreePipe
    usbh_cdc.o(i.USBH_CDC_InterfaceDeInit) refers to malloc.o(i.free) for free
    usbh_cdc.o(i.USBH_CDC_InterfaceInit) refers to usbh_core.o(i.USBH_FindInterface) for USBH_FindInterface
    usbh_cdc.o(i.USBH_CDC_InterfaceInit) refers to usbh_core.o(i.USBH_SelectInterface) for USBH_SelectInterface
    usbh_cdc.o(i.USBH_CDC_InterfaceInit) refers to malloc.o(i.malloc) for malloc
    usbh_cdc.o(i.USBH_CDC_InterfaceInit) refers to usbh_pipes.o(i.USBH_AllocPipe) for USBH_AllocPipe
    usbh_cdc.o(i.USBH_CDC_InterfaceInit) refers to usbh_pipes.o(i.USBH_OpenPipe) for USBH_OpenPipe
    usbh_cdc.o(i.USBH_CDC_InterfaceInit) refers to usbh_conf.o(i.USBH_LL_SetToggle) for USBH_LL_SetToggle
    usbh_cdc.o(i.USBH_CDC_Process) refers to usbh_ctlreq.o(i.USBH_CtlReq) for USBH_CtlReq
    usbh_cdc.o(i.USBH_CDC_Process) refers to usbh_cdc.o(i.GetLineCoding) for GetLineCoding
    usbh_cdc.o(i.USBH_CDC_Process) refers to usbh_cdc.o(i.USBH_CDC_LineCodingChanged) for USBH_CDC_LineCodingChanged
    usbh_cdc.o(i.USBH_CDC_Process) refers to usbh_cdc.o(i.CDC_ProcessTransmission) for CDC_ProcessTransmission
    usbh_cdc.o(i.USBH_CDC_Process) refers to usbh_cdc.o(i.CDC_ProcessReception) for CDC_ProcessReception
    usbh_cdc.o(i.USBH_CDC_Process) refers to usbh_ctlreq.o(i.USBH_ClrFeature) for USBH_ClrFeature
    usbh_cdc.o(i.USBH_CDC_Receive) refers to cmsis_os.o(i.osMessagePut) for osMessagePut
    usbh_cdc.o(i.USBH_CDC_SetLineCoding) refers to cmsis_os.o(i.osMessagePut) for osMessagePut
    usbh_cdc.o(i.USBH_CDC_Stop) refers to usbh_pipes.o(i.USBH_ClosePipe) for USBH_ClosePipe
    usbh_cdc.o(i.USBH_CDC_Transmit) refers to cmsis_os.o(i.osMessagePut) for osMessagePut
    usbh_cdc.o(.data) refers to usbh_cdc.o(.conststring) for .conststring
    usbh_cdc.o(.data) refers to usbh_cdc.o(i.USBH_CDC_InterfaceInit) for USBH_CDC_InterfaceInit
    usbh_cdc.o(.data) refers to usbh_cdc.o(i.USBH_CDC_InterfaceDeInit) for USBH_CDC_InterfaceDeInit
    usbh_cdc.o(.data) refers to usbh_cdc.o(i.USBH_CDC_ClassRequest) for USBH_CDC_ClassRequest
    usbh_cdc.o(.data) refers to usbh_cdc.o(i.USBH_CDC_Process) for USBH_CDC_Process
    usbh_cdc.o(.data) refers to usbh_cdc.o(i.USBH_CDC_SOFProcess) for USBH_CDC_SOFProcess
    usbh_msc.o(i.USBH_MSC_ClassRequest) refers to usbh_msc_bot.o(i.USBH_MSC_BOT_REQ_GetMaxLUN) for USBH_MSC_BOT_REQ_GetMaxLUN
    usbh_msc.o(i.USBH_MSC_ClassRequest) refers to usbh_ctlreq.o(i.USBH_ClrFeature) for USBH_ClrFeature
    usbh_msc.o(i.USBH_MSC_GetLUNInfo) refers to memcpya.o(.text) for __aeabi_memcpy4
    usbh_msc.o(i.USBH_MSC_InterfaceDeInit) refers to usbh_pipes.o(i.USBH_ClosePipe) for USBH_ClosePipe
    usbh_msc.o(i.USBH_MSC_InterfaceDeInit) refers to usbh_pipes.o(i.USBH_FreePipe) for USBH_FreePipe
    usbh_msc.o(i.USBH_MSC_InterfaceDeInit) refers to malloc.o(i.free) for free
    usbh_msc.o(i.USBH_MSC_InterfaceInit) refers to usbh_core.o(i.USBH_FindInterface) for USBH_FindInterface
    usbh_msc.o(i.USBH_MSC_InterfaceInit) refers to usbh_core.o(i.USBH_SelectInterface) for USBH_SelectInterface
    usbh_msc.o(i.USBH_MSC_InterfaceInit) refers to malloc.o(i.malloc) for malloc
    usbh_msc.o(i.USBH_MSC_InterfaceInit) refers to usbh_pipes.o(i.USBH_AllocPipe) for USBH_AllocPipe
    usbh_msc.o(i.USBH_MSC_InterfaceInit) refers to usbh_msc_bot.o(i.USBH_MSC_BOT_Init) for USBH_MSC_BOT_Init
    usbh_msc.o(i.USBH_MSC_InterfaceInit) refers to memseta.o(.text) for __aeabi_memclr4
    usbh_msc.o(i.USBH_MSC_InterfaceInit) refers to usbh_pipes.o(i.USBH_OpenPipe) for USBH_OpenPipe
    usbh_msc.o(i.USBH_MSC_InterfaceInit) refers to usbh_conf.o(i.USBH_LL_SetToggle) for USBH_LL_SetToggle
    usbh_msc.o(i.USBH_MSC_Process) refers to usbh_msc_scsi.o(i.USBH_MSC_SCSI_Inquiry) for USBH_MSC_SCSI_Inquiry
    usbh_msc.o(i.USBH_MSC_Process) refers to usbh_msc_scsi.o(i.USBH_MSC_SCSI_TestUnitReady) for USBH_MSC_SCSI_TestUnitReady
    usbh_msc.o(i.USBH_MSC_Process) refers to usbh_msc_scsi.o(i.USBH_MSC_SCSI_ReadCapacity) for USBH_MSC_SCSI_ReadCapacity
    usbh_msc.o(i.USBH_MSC_Process) refers to usbh_msc_scsi.o(i.USBH_MSC_SCSI_RequestSense) for USBH_MSC_SCSI_RequestSense
    usbh_msc.o(i.USBH_MSC_Process) refers to cmsis_os.o(i.osMessagePut) for osMessagePut
    usbh_msc.o(i.USBH_MSC_RdWrProcess) refers to usbh_msc_scsi.o(i.USBH_MSC_SCSI_Read) for USBH_MSC_SCSI_Read
    usbh_msc.o(i.USBH_MSC_RdWrProcess) refers to cmsis_os.o(i.osMessagePut) for osMessagePut
    usbh_msc.o(i.USBH_MSC_RdWrProcess) refers to usbh_msc_scsi.o(i.USBH_MSC_SCSI_Write) for USBH_MSC_SCSI_Write
    usbh_msc.o(i.USBH_MSC_RdWrProcess) refers to usbh_msc_scsi.o(i.USBH_MSC_SCSI_RequestSense) for USBH_MSC_SCSI_RequestSense
    usbh_msc.o(i.USBH_MSC_Read) refers to usbh_msc_scsi.o(i.USBH_MSC_SCSI_Read) for USBH_MSC_SCSI_Read
    usbh_msc.o(i.USBH_MSC_Read) refers to usbh_msc.o(i.USBH_MSC_RdWrProcess) for USBH_MSC_RdWrProcess
    usbh_msc.o(i.USBH_MSC_Write) refers to usbh_msc_scsi.o(i.USBH_MSC_SCSI_Write) for USBH_MSC_SCSI_Write
    usbh_msc.o(i.USBH_MSC_Write) refers to usbh_msc.o(i.USBH_MSC_RdWrProcess) for USBH_MSC_RdWrProcess
    usbh_msc.o(.data) refers to usbh_msc.o(.conststring) for .conststring
    usbh_msc.o(.data) refers to usbh_msc.o(i.USBH_MSC_InterfaceInit) for USBH_MSC_InterfaceInit
    usbh_msc.o(.data) refers to usbh_msc.o(i.USBH_MSC_InterfaceDeInit) for USBH_MSC_InterfaceDeInit
    usbh_msc.o(.data) refers to usbh_msc.o(i.USBH_MSC_ClassRequest) for USBH_MSC_ClassRequest
    usbh_msc.o(.data) refers to usbh_msc.o(i.USBH_MSC_Process) for USBH_MSC_Process
    usbh_msc.o(.data) refers to usbh_msc.o(i.USBH_MSC_SOFProcess) for USBH_MSC_SOFProcess
    usbh_hid_keybd.o(i.USBH_HID_GetASCIICode) refers to usbh_hid_keybd.o(.constdata) for .constdata
    usbh_hid_keybd.o(i.USBH_HID_GetKeybdInfo) refers to usbh_hid_keybd.o(i.USBH_HID_KeybdDecode) for USBH_HID_KeybdDecode
    usbh_hid_keybd.o(i.USBH_HID_GetKeybdInfo) refers to usbh_hid_keybd.o(.bss) for .bss
    usbh_hid_keybd.o(i.USBH_HID_KeybdDecode) refers to usbh_hid.o(i.fifo_read) for fifo_read
    usbh_hid_keybd.o(i.USBH_HID_KeybdDecode) refers to usbh_hid_parser.o(i.HID_ReadItem) for HID_ReadItem
    usbh_hid_keybd.o(i.USBH_HID_KeybdDecode) refers to usbh_hid_keybd.o(.data) for .data
    usbh_hid_keybd.o(i.USBH_HID_KeybdDecode) refers to usbh_hid_keybd.o(.constdata) for .constdata
    usbh_hid_keybd.o(i.USBH_HID_KeybdDecode) refers to usbh_hid_keybd.o(.bss) for .bss
    usbh_hid_keybd.o(i.USBH_HID_KeybdInit) refers to usbh_hid.o(i.fifo_init) for fifo_init
    usbh_hid_keybd.o(i.USBH_HID_KeybdInit) refers to usbh_hid_keybd.o(.bss) for .bss
    usbh_hid_keybd.o(i.USBH_HID_KeybdInit) refers to usbh_hid_keybd.o(.data) for .data
    usbh_hid_keybd.o(.constdata) refers to usbh_hid_keybd.o(.data) for keybd_report_data
    usbh_core.o(i.USBH_DeInit) refers to usbh_core.o(i.DeInitStateMachine) for DeInitStateMachine
    usbh_core.o(i.USBH_DeInit) refers to usbh_conf.o(i.USBH_LL_Stop) for USBH_LL_Stop
    usbh_core.o(i.USBH_HandleEnum) refers to usbh_ctlreq.o(i.USBH_Get_DevDesc) for USBH_Get_DevDesc
    usbh_core.o(i.USBH_HandleEnum) refers to usbh_ctlreq.o(i.USBH_SetAddress) for USBH_SetAddress
    usbh_core.o(i.USBH_HandleEnum) refers to usbh_conf.o(i.USBH_Delay) for USBH_Delay
    usbh_core.o(i.USBH_HandleEnum) refers to usbh_pipes.o(i.USBH_OpenPipe) for USBH_OpenPipe
    usbh_core.o(i.USBH_HandleEnum) refers to usbh_ctlreq.o(i.USBH_Get_CfgDesc) for USBH_Get_CfgDesc
    usbh_core.o(i.USBH_HandleEnum) refers to usbh_ctlreq.o(i.USBH_Get_StringDesc) for USBH_Get_StringDesc
    usbh_core.o(i.USBH_HandleEnum) refers to cmsis_os.o(i.osMessagePut) for osMessagePut
    usbh_core.o(i.USBH_Init) refers to usbh_core.o(i.DeInitStateMachine) for DeInitStateMachine
    usbh_core.o(i.USBH_Init) refers to cmsis_os.o(i.osMessageCreate) for osMessageCreate
    usbh_core.o(i.USBH_Init) refers to memcpya.o(.text) for __aeabi_memcpy4
    usbh_core.o(i.USBH_Init) refers to cmsis_os.o(i.osThreadCreate) for osThreadCreate
    usbh_core.o(i.USBH_Init) refers to usbh_conf.o(i.USBH_LL_Init) for USBH_LL_Init
    usbh_core.o(i.USBH_Init) refers to usbh_core.o(.constdata) for .constdata
    usbh_core.o(i.USBH_LL_Connect) refers to cmsis_os.o(i.osMessagePut) for osMessagePut
    usbh_core.o(i.USBH_LL_Disconnect) refers to usbh_conf.o(i.USBH_LL_Stop) for USBH_LL_Stop
    usbh_core.o(i.USBH_LL_Disconnect) refers to usbh_pipes.o(i.USBH_FreePipe) for USBH_FreePipe
    usbh_core.o(i.USBH_LL_Disconnect) refers to usbh_conf.o(i.USBH_LL_Start) for USBH_LL_Start
    usbh_core.o(i.USBH_LL_Disconnect) refers to cmsis_os.o(i.osMessagePut) for osMessagePut
    usbh_core.o(i.USBH_LL_NotifyURBChange) refers to cmsis_os.o(i.osMessagePut) for osMessagePut
    usbh_core.o(i.USBH_Process) refers to usbh_conf.o(i.USBH_Delay) for USBH_Delay
    usbh_core.o(i.USBH_Process) refers to usbh_conf.o(i.USBH_LL_ResetPort) for USBH_LL_ResetPort
    usbh_core.o(i.USBH_Process) refers to usbh_conf.o(i.USBH_LL_GetSpeed) for USBH_LL_GetSpeed
    usbh_core.o(i.USBH_Process) refers to usbh_pipes.o(i.USBH_AllocPipe) for USBH_AllocPipe
    usbh_core.o(i.USBH_Process) refers to usbh_pipes.o(i.USBH_OpenPipe) for USBH_OpenPipe
    usbh_core.o(i.USBH_Process) refers to usbh_core.o(i.USBH_HandleEnum) for USBH_HandleEnum
    usbh_core.o(i.USBH_Process) refers to usbh_ctlreq.o(i.USBH_SetCfg) for USBH_SetCfg
    usbh_core.o(i.USBH_Process) refers to cmsis_os.o(i.osMessagePut) for osMessagePut
    usbh_core.o(i.USBH_Process) refers to usbh_core.o(i.DeInitStateMachine) for DeInitStateMachine
    usbh_core.o(i.USBH_Process_OS) refers to cmsis_os.o(i.osMessageGet) for osMessageGet
    usbh_core.o(i.USBH_Process_OS) refers to usbh_core.o(i.USBH_Process) for USBH_Process
    usbh_core.o(i.USBH_ReEnumerate) refers to usbh_core.o(i.USBH_Stop) for USBH_Stop
    usbh_core.o(i.USBH_ReEnumerate) refers to usbh_conf.o(i.USBH_Delay) for USBH_Delay
    usbh_core.o(i.USBH_ReEnumerate) refers to usbh_core.o(i.DeInitStateMachine) for DeInitStateMachine
    usbh_core.o(i.USBH_ReEnumerate) refers to usbh_core.o(i.USBH_Start) for USBH_Start
    usbh_core.o(i.USBH_ReEnumerate) refers to cmsis_os.o(i.osMessagePut) for osMessagePut
    usbh_core.o(i.USBH_Start) refers to usbh_conf.o(i.USBH_LL_Start) for USBH_LL_Start
    usbh_core.o(i.USBH_Start) refers to usbh_conf.o(i.USBH_LL_DriverVBUS) for USBH_LL_DriverVBUS
    usbh_core.o(i.USBH_Stop) refers to usbh_conf.o(i.USBH_LL_Stop) for USBH_LL_Stop
    usbh_core.o(i.USBH_Stop) refers to usbh_conf.o(i.USBH_LL_DriverVBUS) for USBH_LL_DriverVBUS
    usbh_core.o(i.USBH_Stop) refers to usbh_pipes.o(i.USBH_FreePipe) for USBH_FreePipe
    usbh_core.o(.constdata) refers to usbh_core.o(.conststring) for .conststring
    usbh_core.o(.constdata) refers to usbh_core.o(i.USBH_Process_OS) for USBH_Process_OS
    usbh_ctlreq.o(i.USBH_ClrFeature) refers to usbh_ctlreq.o(i.USBH_CtlReq) for USBH_CtlReq
    usbh_ctlreq.o(i.USBH_CtlReq) refers to cmsis_os.o(i.osMessagePut) for osMessagePut
    usbh_ctlreq.o(i.USBH_CtlReq) refers to usbh_ctlreq.o(i.USBH_HandleControl) for USBH_HandleControl
    usbh_ctlreq.o(i.USBH_GetDescriptor) refers to usbh_ctlreq.o(i.USBH_CtlReq) for USBH_CtlReq
    usbh_ctlreq.o(i.USBH_Get_CfgDesc) refers to usbh_ctlreq.o(i.USBH_GetDescriptor) for USBH_GetDescriptor
    usbh_ctlreq.o(i.USBH_Get_CfgDesc) refers to usbh_ctlreq.o(i.USBH_ParseCfgDesc) for USBH_ParseCfgDesc
    usbh_ctlreq.o(i.USBH_Get_DevDesc) refers to usbh_ctlreq.o(i.USBH_GetDescriptor) for USBH_GetDescriptor
    usbh_ctlreq.o(i.USBH_Get_StringDesc) refers to usbh_ctlreq.o(i.USBH_GetDescriptor) for USBH_GetDescriptor
    usbh_ctlreq.o(i.USBH_HandleControl) refers to usbh_ioreq.o(i.USBH_CtlSendSetup) for USBH_CtlSendSetup
    usbh_ctlreq.o(i.USBH_HandleControl) refers to usbh_conf.o(i.USBH_LL_GetURBState) for USBH_LL_GetURBState
    usbh_ctlreq.o(i.USBH_HandleControl) refers to usbh_ioreq.o(i.USBH_CtlReceiveData) for USBH_CtlReceiveData
    usbh_ctlreq.o(i.USBH_HandleControl) refers to usbh_ioreq.o(i.USBH_CtlSendData) for USBH_CtlSendData
    usbh_ctlreq.o(i.USBH_HandleControl) refers to cmsis_os.o(i.osMessagePut) for osMessagePut
    usbh_ctlreq.o(i.USBH_HandleControl) refers to usbh_conf.o(i.USBH_LL_Stop) for USBH_LL_Stop
    usbh_ctlreq.o(i.USBH_ParseCfgDesc) refers to usbh_ctlreq.o(i.USBH_GetNextDesc) for USBH_GetNextDesc
    usbh_ctlreq.o(i.USBH_SetAddress) refers to usbh_ctlreq.o(i.USBH_CtlReq) for USBH_CtlReq
    usbh_ctlreq.o(i.USBH_SetCfg) refers to usbh_ctlreq.o(i.USBH_CtlReq) for USBH_CtlReq
    usbh_ctlreq.o(i.USBH_SetInterface) refers to usbh_ctlreq.o(i.USBH_CtlReq) for USBH_CtlReq
    usbh_mtp_ptp.o(i.PTP_BufferFullCallback) refers to memcpya.o(.text) for __aeabi_memcpy
    usbh_mtp_ptp.o(i.PTP_BufferFullCallback) refers to usbh_mtp_ptp.o(i.PTP_DecodeDeviceInfo) for PTP_DecodeDeviceInfo
    usbh_mtp_ptp.o(i.PTP_DecodeDeviceInfo) refers to usbh_mtp_ptp.o(i.PTP_GetString) for PTP_GetString
    usbh_mtp_ptp.o(i.PTP_DecodeDeviceInfo) refers to usbh_mtp_ptp.o(i.PTP_GetArray16) for PTP_GetArray16
    usbh_mtp_ptp.o(i.PTP_GetDevicePropValue) refers to usbh_mtp_ptp.o(i.PTP_GetString) for PTP_GetString
    usbh_mtp_ptp.o(i.PTP_GetObjectInfo) refers to usbh_mtp_ptp.o(i.PTP_GetString) for PTP_GetString
    usbh_mtp_ptp.o(i.PTP_GetObjectPropDesc) refers to usbh_mtp_ptp.o(i.PTP_GetDevicePropValue) for PTP_GetDevicePropValue
    usbh_mtp_ptp.o(i.PTP_GetObjectPropList) refers to usbh_mtp_ptp.o(i.PTP_GetDevicePropValue) for PTP_GetDevicePropValue
    usbh_mtp_ptp.o(i.PTP_GetStorageInfo) refers to usbh_mtp_ptp.o(i.PTP_GetString) for PTP_GetString
    usbh_mtp_ptp.o(i.USBH_PTP_DeleteObject) refers to usbh_mtp_ptp.o(i.USBH_PTP_SendRequest) for USBH_PTP_SendRequest
    usbh_mtp_ptp.o(i.USBH_PTP_DeleteObject) refers to cmsis_os.o(i.osMessagePut) for osMessagePut
    usbh_mtp_ptp.o(i.USBH_PTP_DeleteObject) refers to usbh_mtp_ptp.o(i.USBH_PTP_Process) for USBH_PTP_Process
    usbh_mtp_ptp.o(i.USBH_PTP_GetDeviceInfo) refers to usbh_mtp_ptp.o(i.USBH_PTP_SendRequest) for USBH_PTP_SendRequest
    usbh_mtp_ptp.o(i.USBH_PTP_GetDeviceInfo) refers to cmsis_os.o(i.osMessagePut) for osMessagePut
    usbh_mtp_ptp.o(i.USBH_PTP_GetDeviceInfo) refers to usbh_mtp_ptp.o(i.USBH_PTP_Process) for USBH_PTP_Process
    usbh_mtp_ptp.o(i.USBH_PTP_GetDeviceInfo) refers to usbh_mtp_ptp.o(i.PTP_DecodeDeviceInfo) for PTP_DecodeDeviceInfo
    usbh_mtp_ptp.o(i.USBH_PTP_GetDevicePropDesc) refers to usbh_mtp_ptp.o(i.USBH_PTP_SendRequest) for USBH_PTP_SendRequest
    usbh_mtp_ptp.o(i.USBH_PTP_GetDevicePropDesc) refers to cmsis_os.o(i.osMessagePut) for osMessagePut
    usbh_mtp_ptp.o(i.USBH_PTP_GetDevicePropDesc) refers to usbh_mtp_ptp.o(i.USBH_PTP_Process) for USBH_PTP_Process
    usbh_mtp_ptp.o(i.USBH_PTP_GetNumObjects) refers to usbh_mtp_ptp.o(i.USBH_PTP_SendRequest) for USBH_PTP_SendRequest
    usbh_mtp_ptp.o(i.USBH_PTP_GetNumObjects) refers to cmsis_os.o(i.osMessagePut) for osMessagePut
    usbh_mtp_ptp.o(i.USBH_PTP_GetNumObjects) refers to usbh_mtp_ptp.o(i.USBH_PTP_Process) for USBH_PTP_Process
    usbh_mtp_ptp.o(i.USBH_PTP_GetObject) refers to usbh_mtp_ptp.o(i.USBH_PTP_SendRequest) for USBH_PTP_SendRequest
    usbh_mtp_ptp.o(i.USBH_PTP_GetObject) refers to cmsis_os.o(i.osMessagePut) for osMessagePut
    usbh_mtp_ptp.o(i.USBH_PTP_GetObject) refers to usbh_mtp_ptp.o(i.USBH_PTP_Process) for USBH_PTP_Process
    usbh_mtp_ptp.o(i.USBH_PTP_GetObject) refers to memcpya.o(.text) for __aeabi_memcpy
    usbh_mtp_ptp.o(i.USBH_PTP_GetObjectHandles) refers to usbh_mtp_ptp.o(i.USBH_PTP_SendRequest) for USBH_PTP_SendRequest
    usbh_mtp_ptp.o(i.USBH_PTP_GetObjectHandles) refers to cmsis_os.o(i.osMessagePut) for osMessagePut
    usbh_mtp_ptp.o(i.USBH_PTP_GetObjectHandles) refers to usbh_mtp_ptp.o(i.USBH_PTP_Process) for USBH_PTP_Process
    usbh_mtp_ptp.o(i.USBH_PTP_GetObjectHandles) refers to usbh_mtp_ptp.o(i.PTP_GetArray32) for PTP_GetArray32
    usbh_mtp_ptp.o(i.USBH_PTP_GetObjectInfo) refers to usbh_mtp_ptp.o(i.USBH_PTP_SendRequest) for USBH_PTP_SendRequest
    usbh_mtp_ptp.o(i.USBH_PTP_GetObjectInfo) refers to cmsis_os.o(i.osMessagePut) for osMessagePut
    usbh_mtp_ptp.o(i.USBH_PTP_GetObjectInfo) refers to usbh_mtp_ptp.o(i.USBH_PTP_Process) for USBH_PTP_Process
    usbh_mtp_ptp.o(i.USBH_PTP_GetObjectInfo) refers to usbh_mtp_ptp.o(i.PTP_GetObjectInfo) for PTP_GetObjectInfo
    usbh_mtp_ptp.o(i.USBH_PTP_GetObjectPropDesc) refers to usbh_mtp_ptp.o(i.USBH_PTP_SendRequest) for USBH_PTP_SendRequest
    usbh_mtp_ptp.o(i.USBH_PTP_GetObjectPropDesc) refers to cmsis_os.o(i.osMessagePut) for osMessagePut
    usbh_mtp_ptp.o(i.USBH_PTP_GetObjectPropDesc) refers to usbh_mtp_ptp.o(i.USBH_PTP_Process) for USBH_PTP_Process
    usbh_mtp_ptp.o(i.USBH_PTP_GetObjectPropDesc) refers to usbh_mtp_ptp.o(i.PTP_GetObjectPropDesc) for PTP_GetObjectPropDesc
    usbh_mtp_ptp.o(i.USBH_PTP_GetObjectPropList) refers to memcpya.o(.text) for __aeabi_memcpy
    usbh_mtp_ptp.o(i.USBH_PTP_GetObjectPropList) refers to usbh_mtp_ptp.o(i.USBH_PTP_SendRequest) for USBH_PTP_SendRequest
    usbh_mtp_ptp.o(i.USBH_PTP_GetObjectPropList) refers to cmsis_os.o(i.osMessagePut) for osMessagePut
    usbh_mtp_ptp.o(i.USBH_PTP_GetObjectPropList) refers to usbh_mtp_ptp.o(i.USBH_PTP_Process) for USBH_PTP_Process
    usbh_mtp_ptp.o(i.USBH_PTP_GetObjectPropList) refers to usbh_mtp_ptp.o(i.PTP_GetObjectPropList) for PTP_GetObjectPropList
    usbh_mtp_ptp.o(i.USBH_PTP_GetObjectPropsSupported) refers to usbh_mtp_ptp.o(i.USBH_PTP_SendRequest) for USBH_PTP_SendRequest
    usbh_mtp_ptp.o(i.USBH_PTP_GetObjectPropsSupported) refers to cmsis_os.o(i.osMessagePut) for osMessagePut
    usbh_mtp_ptp.o(i.USBH_PTP_GetObjectPropsSupported) refers to usbh_mtp_ptp.o(i.USBH_PTP_Process) for USBH_PTP_Process
    usbh_mtp_ptp.o(i.USBH_PTP_GetObjectPropsSupported) refers to usbh_mtp_ptp.o(i.PTP_GetArray16) for PTP_GetArray16
    usbh_mtp_ptp.o(i.USBH_PTP_GetPartialObject) refers to usbh_mtp_ptp.o(i.USBH_PTP_SendRequest) for USBH_PTP_SendRequest
    usbh_mtp_ptp.o(i.USBH_PTP_GetPartialObject) refers to cmsis_os.o(i.osMessagePut) for osMessagePut
    usbh_mtp_ptp.o(i.USBH_PTP_GetPartialObject) refers to usbh_mtp_ptp.o(i.USBH_PTP_Process) for USBH_PTP_Process
    usbh_mtp_ptp.o(i.USBH_PTP_GetPartialObject) refers to memcpya.o(.text) for __aeabi_memcpy
    usbh_mtp_ptp.o(i.USBH_PTP_GetStorageIds) refers to usbh_mtp_ptp.o(i.USBH_PTP_SendRequest) for USBH_PTP_SendRequest
    usbh_mtp_ptp.o(i.USBH_PTP_GetStorageIds) refers to cmsis_os.o(i.osMessagePut) for osMessagePut
    usbh_mtp_ptp.o(i.USBH_PTP_GetStorageIds) refers to usbh_mtp_ptp.o(i.USBH_PTP_Process) for USBH_PTP_Process
    usbh_mtp_ptp.o(i.USBH_PTP_GetStorageIds) refers to usbh_mtp_ptp.o(i.PTP_GetArray32) for PTP_GetArray32
    usbh_mtp_ptp.o(i.USBH_PTP_GetStorageInfo) refers to usbh_mtp_ptp.o(i.USBH_PTP_SendRequest) for USBH_PTP_SendRequest
    usbh_mtp_ptp.o(i.USBH_PTP_GetStorageInfo) refers to cmsis_os.o(i.osMessagePut) for osMessagePut
    usbh_mtp_ptp.o(i.USBH_PTP_GetStorageInfo) refers to usbh_mtp_ptp.o(i.USBH_PTP_Process) for USBH_PTP_Process
    usbh_mtp_ptp.o(i.USBH_PTP_GetStorageInfo) refers to usbh_mtp_ptp.o(i.PTP_GetStorageInfo) for PTP_GetStorageInfo
    usbh_mtp_ptp.o(i.USBH_PTP_OpenSession) refers to usbh_mtp_ptp.o(i.USBH_PTP_SendRequest) for USBH_PTP_SendRequest
    usbh_mtp_ptp.o(i.USBH_PTP_OpenSession) refers to cmsis_os.o(i.osMessagePut) for osMessagePut
    usbh_mtp_ptp.o(i.USBH_PTP_OpenSession) refers to usbh_mtp_ptp.o(i.USBH_PTP_Process) for USBH_PTP_Process
    usbh_mtp_ptp.o(i.USBH_PTP_Process) refers to usbh_ioreq.o(i.USBH_BulkSendData) for USBH_BulkSendData
    usbh_mtp_ptp.o(i.USBH_PTP_Process) refers to usbh_conf.o(i.USBH_LL_GetURBState) for USBH_LL_GetURBState
    usbh_mtp_ptp.o(i.USBH_PTP_Process) refers to usbh_mtp_ptp.o(i.PTP_BufferFullCallback) for PTP_BufferFullCallback
    usbh_mtp_ptp.o(i.USBH_PTP_Process) refers to cmsis_os.o(i.osMessagePut) for osMessagePut
    usbh_mtp_ptp.o(i.USBH_PTP_Process) refers to usbh_ioreq.o(i.USBH_BulkReceiveData) for USBH_BulkReceiveData
    usbh_mtp_ptp.o(i.USBH_PTP_Process) refers to usbh_conf.o(i.USBH_LL_GetLastXferSize) for USBH_LL_GetLastXferSize
    usbh_mtp_ptp.o(i.USBH_PTP_Process) refers to usbh_mtp_ptp.o(i.USBH_PTP_GetResponse) for USBH_PTP_GetResponse
    usbh_mtp_ptp.o(i.USBH_PTP_SendObject) refers to usbh_mtp_ptp.o(i.USBH_PTP_SendRequest) for USBH_PTP_SendRequest
    usbh_mtp_ptp.o(i.USBH_PTP_SendObject) refers to cmsis_os.o(i.osMessagePut) for osMessagePut
    usbh_mtp_ptp.o(i.USBH_PTP_SendObject) refers to usbh_mtp_ptp.o(i.USBH_PTP_Process) for USBH_PTP_Process
    usbh_mtp_ptp.o(i.USBH_PTP_SendRequest) refers to memseta.o(.text) for __aeabi_memclr4
    usbh_audio.o(i.USBH_AC_GetCur) refers to usbh_ctlreq.o(i.USBH_CtlReq) for USBH_CtlReq
    usbh_audio.o(i.USBH_AC_GetMax) refers to usbh_ctlreq.o(i.USBH_CtlReq) for USBH_CtlReq
    usbh_audio.o(i.USBH_AC_GetMin) refers to usbh_ctlreq.o(i.USBH_CtlReq) for USBH_CtlReq
    usbh_audio.o(i.USBH_AC_GetRes) refers to usbh_ctlreq.o(i.USBH_CtlReq) for USBH_CtlReq
    usbh_audio.o(i.USBH_AUDIO_BuildHeadphonePath) refers to usbh_audio.o(i.USBH_AUDIO_FindLinkedUnit) for USBH_AUDIO_FindLinkedUnit
    usbh_audio.o(i.USBH_AUDIO_BuildMicrophonePath) refers to usbh_audio.o(i.USBH_AUDIO_FindLinkedUnit) for USBH_AUDIO_FindLinkedUnit
    usbh_audio.o(i.USBH_AUDIO_CSRequest) refers to usbh_audio.o(i.USBH_AC_GetCur) for USBH_AC_GetCur
    usbh_audio.o(i.USBH_AUDIO_CSRequest) refers to usbh_audio.o(i.USBH_AC_GetMin) for USBH_AC_GetMin
    usbh_audio.o(i.USBH_AUDIO_CSRequest) refers to usbh_audio.o(i.USBH_AC_GetMax) for USBH_AC_GetMax
    usbh_audio.o(i.USBH_AUDIO_CSRequest) refers to usbh_audio.o(i.USBH_AC_GetRes) for USBH_AC_GetRes
    usbh_audio.o(i.USBH_AUDIO_ClassRequest) refers to usbh_ctlreq.o(i.USBH_SetInterface) for USBH_SetInterface
    usbh_audio.o(i.USBH_AUDIO_ClassRequest) refers to usbh_audio.o(i.USBH_AUDIO_CSRequest) for USBH_AUDIO_CSRequest
    usbh_audio.o(i.USBH_AUDIO_ClassRequest) refers to cmsis_os.o(i.osMessagePut) for osMessagePut
    usbh_audio.o(i.USBH_AUDIO_Control) refers to usbh_ioreq.o(i.USBH_InterruptReceiveData) for USBH_InterruptReceiveData
    usbh_audio.o(i.USBH_AUDIO_Control) refers to usbh_conf.o(i.USBH_LL_GetURBState) for USBH_LL_GetURBState
    usbh_audio.o(i.USBH_AUDIO_Control) refers to usbh_audio.o(i.USBH_AUDIO_SetControlAttribute) for USBH_AUDIO_SetControlAttribute
    usbh_audio.o(i.USBH_AUDIO_FindHIDControl) refers to usbh_core.o(i.USBH_FindInterface) for USBH_FindInterface
    usbh_audio.o(i.USBH_AUDIO_InterfaceDeInit) refers to usbh_pipes.o(i.USBH_ClosePipe) for USBH_ClosePipe
    usbh_audio.o(i.USBH_AUDIO_InterfaceDeInit) refers to usbh_pipes.o(i.USBH_FreePipe) for USBH_FreePipe
    usbh_audio.o(i.USBH_AUDIO_InterfaceDeInit) refers to malloc.o(i.free) for free
    usbh_audio.o(i.USBH_AUDIO_InterfaceInit) refers to usbh_core.o(i.USBH_FindInterface) for USBH_FindInterface
    usbh_audio.o(i.USBH_AUDIO_InterfaceInit) refers to malloc.o(i.malloc) for malloc
    usbh_audio.o(i.USBH_AUDIO_InterfaceInit) refers to memseta.o(.text) for __aeabi_memclr4
    usbh_audio.o(i.USBH_AUDIO_InterfaceInit) refers to usbh_audio.o(i.USBH_AUDIO_FindAudioStreamingIN) for USBH_AUDIO_FindAudioStreamingIN
    usbh_audio.o(i.USBH_AUDIO_InterfaceInit) refers to usbh_audio.o(i.USBH_AUDIO_FindAudioStreamingOUT) for USBH_AUDIO_FindAudioStreamingOUT
    usbh_audio.o(i.USBH_AUDIO_InterfaceInit) refers to usbh_audio.o(i.USBH_AUDIO_FindHIDControl) for USBH_AUDIO_FindHIDControl
    usbh_audio.o(i.USBH_AUDIO_InterfaceInit) refers to usbh_audio.o(i.USBH_AUDIO_ParseCSDescriptors) for USBH_AUDIO_ParseCSDescriptors
    usbh_audio.o(i.USBH_AUDIO_InterfaceInit) refers to usbh_audio.o(i.USBH_AUDIO_BuildHeadphonePath) for USBH_AUDIO_BuildHeadphonePath
    usbh_audio.o(i.USBH_AUDIO_InterfaceInit) refers to usbh_pipes.o(i.USBH_AllocPipe) for USBH_AllocPipe
    usbh_audio.o(i.USBH_AUDIO_InterfaceInit) refers to usbh_pipes.o(i.USBH_OpenPipe) for USBH_OpenPipe
    usbh_audio.o(i.USBH_AUDIO_InterfaceInit) refers to usbh_conf.o(i.USBH_LL_SetToggle) for USBH_LL_SetToggle
    usbh_audio.o(i.USBH_AUDIO_InterfaceInit) refers to usbh_audio.o(i.USBH_AUDIO_BuildMicrophonePath) for USBH_AUDIO_BuildMicrophonePath
    usbh_audio.o(i.USBH_AUDIO_OutputStream) refers to cmsis_os.o(i.osMessagePut) for osMessagePut
    usbh_audio.o(i.USBH_AUDIO_OutputStream) refers to usbh_audio.o(i.USBH_AUDIO_SetEndpointControls) for USBH_AUDIO_SetEndpointControls
    usbh_audio.o(i.USBH_AUDIO_OutputStream) refers to usbh_audio.o(i.USBH_AUDIO_FrequencySet) for USBH_AUDIO_FrequencySet
    usbh_audio.o(i.USBH_AUDIO_OutputStream) refers to usbh_audio.o(i.USBH_AUDIO_Transmit) for USBH_AUDIO_Transmit
    usbh_audio.o(i.USBH_AUDIO_ParseCSDescriptors) refers to usbh_ctlreq.o(i.USBH_GetNextDesc) for USBH_GetNextDesc
    usbh_audio.o(i.USBH_AUDIO_ParseCSDescriptors) refers to usbh_core.o(i.USBH_FindInterfaceIndex) for USBH_FindInterfaceIndex
    usbh_audio.o(i.USBH_AUDIO_ParseCSDescriptors) refers to usbh_audio.o(i.ParseCSDescriptors) for ParseCSDescriptors
    usbh_audio.o(i.USBH_AUDIO_Play) refers to cmsis_os.o(i.osMessagePut) for osMessagePut
    usbh_audio.o(i.USBH_AUDIO_Process) refers to usbh_audio.o(i.USBH_AUDIO_OutputStream) for USBH_AUDIO_OutputStream
    usbh_audio.o(i.USBH_AUDIO_SetControlAttribute) refers to usbh_ctlreq.o(i.USBH_CtlReq) for USBH_CtlReq
    usbh_audio.o(i.USBH_AUDIO_SetEndpointControls) refers to usbh_ctlreq.o(i.USBH_CtlReq) for USBH_CtlReq
    usbh_audio.o(i.USBH_AUDIO_Stop) refers to usbh_audio.o(i.USBH_AUDIO_Suspend) for USBH_AUDIO_Suspend
    usbh_audio.o(i.USBH_AUDIO_Transmit) refers to cmsis_os.o(i.osDelay) for osDelay
    usbh_audio.o(i.USBH_AUDIO_Transmit) refers to cmsis_os.o(i.osMessagePut) for osMessagePut
    usbh_audio.o(i.USBH_AUDIO_Transmit) refers to usbh_ioreq.o(i.USBH_IsocSendData) for USBH_IsocSendData
    usbh_audio.o(i.USBH_AUDIO_Transmit) refers to usbh_conf.o(i.USBH_LL_GetURBState) for USBH_LL_GetURBState
    usbh_audio.o(i.USBH_AUDIO_Transmit) refers to usbh_audio.o(i.USBH_AUDIO_Control) for USBH_AUDIO_Control
    usbh_audio.o(i.USBH_AUDIO_Transmit) refers to usbh_audio.o(i.USBH_AUDIO_BufferEmptyCallback) for USBH_AUDIO_BufferEmptyCallback
    usbh_audio.o(.data) refers to usbh_audio.o(.conststring) for .conststring
    usbh_audio.o(.data) refers to usbh_audio.o(i.USBH_AUDIO_InterfaceInit) for USBH_AUDIO_InterfaceInit
    usbh_audio.o(.data) refers to usbh_audio.o(i.USBH_AUDIO_InterfaceDeInit) for USBH_AUDIO_InterfaceDeInit
    usbh_audio.o(.data) refers to usbh_audio.o(i.USBH_AUDIO_ClassRequest) for USBH_AUDIO_ClassRequest
    usbh_audio.o(.data) refers to usbh_audio.o(i.USBH_AUDIO_Process) for USBH_AUDIO_Process
    usbh_audio.o(.data) refers to usbh_audio.o(i.USBH_AUDIO_SOFProcess) for USBH_AUDIO_SOFProcess
    stm32f4xx_hal.o(i.HAL_DeInit) refers to stm32f4xx_hal.o(i.HAL_MspDeInit) for HAL_MspDeInit
    stm32f4xx_hal.o(i.HAL_Delay) refers to stm32f4xx_hal.o(i.HAL_GetTick) for HAL_GetTick
    stm32f4xx_hal.o(i.HAL_GetTick) refers to stm32f4xx_hal.o(.data) for .data
    stm32f4xx_hal.o(i.HAL_IncTick) refers to stm32f4xx_hal.o(.data) for .data
    stm32f4xx_hal.o(i.HAL_Init) refers to stm32f4xx_hal_cortex.o(i.HAL_NVIC_SetPriorityGrouping) for HAL_NVIC_SetPriorityGrouping
    stm32f4xx_hal.o(i.HAL_Init) refers to stm32f4xx_hal.o(i.HAL_InitTick) for HAL_InitTick
    stm32f4xx_hal.o(i.HAL_Init) refers to stm32f4xx_hal_msp.o(i.HAL_MspInit) for HAL_MspInit
    stm32f4xx_hal.o(i.HAL_InitTick) refers to stm32f4xx_hal_rcc.o(i.HAL_RCC_GetHCLKFreq) for HAL_RCC_GetHCLKFreq
    stm32f4xx_hal.o(i.HAL_InitTick) refers to stm32f4xx_hal_cortex.o(i.HAL_SYSTICK_Config) for HAL_SYSTICK_Config
    stm32f4xx_hal.o(i.HAL_InitTick) refers to stm32f4xx_hal_cortex.o(i.HAL_NVIC_SetPriority) for HAL_NVIC_SetPriority
    stm32f4xx_hal_pwr.o(i.HAL_PWR_PVD_IRQHandler) refers to stm32f4xx_hal_pwr.o(i.HAL_PWR_PVDCallback) for HAL_PWR_PVDCallback
    stm32f4xx_hal_flash_ex.o(i.HAL_FLASHEx_Erase) refers to stm32f4xx_hal_flash.o(i.FLASH_WaitForLastOperation) for FLASH_WaitForLastOperation
    stm32f4xx_hal_flash_ex.o(i.HAL_FLASHEx_Erase) refers to stm32f4xx_hal_flash_ex.o(i.FLASH_MassErase) for FLASH_MassErase
    stm32f4xx_hal_flash_ex.o(i.HAL_FLASHEx_Erase) refers to stm32f4xx_hal_flash_ex.o(i.FLASH_Erase_Sector) for FLASH_Erase_Sector
    stm32f4xx_hal_flash_ex.o(i.HAL_FLASHEx_Erase) refers to stm32f4xx_hal_flash.o(.bss) for pFlash
    stm32f4xx_hal_flash_ex.o(i.HAL_FLASHEx_Erase_IT) refers to stm32f4xx_hal_flash_ex.o(i.FLASH_Erase_Sector) for FLASH_Erase_Sector
    stm32f4xx_hal_flash_ex.o(i.HAL_FLASHEx_Erase_IT) refers to stm32f4xx_hal_flash_ex.o(i.FLASH_MassErase) for FLASH_MassErase
    stm32f4xx_hal_flash_ex.o(i.HAL_FLASHEx_Erase_IT) refers to stm32f4xx_hal_flash.o(.bss) for pFlash
    stm32f4xx_hal_flash_ex.o(i.HAL_FLASHEx_OBProgram) refers to stm32f4xx_hal_flash.o(i.FLASH_WaitForLastOperation) for FLASH_WaitForLastOperation
    stm32f4xx_hal_flash_ex.o(i.HAL_FLASHEx_OBProgram) refers to stm32f4xx_hal_flash.o(.bss) for pFlash
    stm32f4xx_hal_rcc_ex.o(i.HAL_RCCEx_PeriphCLKConfig) refers to stm32f4xx_hal.o(i.HAL_GetTick) for HAL_GetTick
    stm32f4xx_hal_gpio.o(i.HAL_GPIO_EXTI_IRQHandler) refers to stm32f4xx_hal_gpio.o(i.HAL_GPIO_EXTI_Callback) for HAL_GPIO_EXTI_Callback
    stm32f4xx_hal_cortex.o(i.HAL_NVIC_SetPriority) refers to stm32f4xx_hal_cortex.o(i.NVIC_SetPriority) for NVIC_SetPriority
    stm32f4xx_hal_cortex.o(i.HAL_SYSTICK_Config) refers to stm32f4xx_hal_cortex.o(i.NVIC_SetPriority) for NVIC_SetPriority
    stm32f4xx_hal_cortex.o(i.HAL_SYSTICK_IRQHandler) refers to stm32f4xx_hal_cortex.o(i.HAL_SYSTICK_Callback) for HAL_SYSTICK_Callback
    stm32f4xx_hal_hcd.o(i.HAL_HCD_DeInit) refers to usbh_conf.o(i.HAL_HCD_MspDeInit) for HAL_HCD_MspDeInit
    stm32f4xx_hal_hcd.o(i.HAL_HCD_DeInit) refers to stm32f4xx_ll_usb.o(i.USB_DisableGlobalInt) for USB_DisableGlobalInt
    stm32f4xx_hal_hcd.o(i.HAL_HCD_GetCurrentFrame) refers to stm32f4xx_ll_usb.o(i.USB_GetCurrentFrame) for USB_GetCurrentFrame
    stm32f4xx_hal_hcd.o(i.HAL_HCD_GetCurrentSpeed) refers to stm32f4xx_ll_usb.o(i.USB_GetHostSpeed) for USB_GetHostSpeed
    stm32f4xx_hal_hcd.o(i.HAL_HCD_HC_Halt) refers to stm32f4xx_ll_usb.o(i.USB_HC_Halt) for USB_HC_Halt
    stm32f4xx_hal_hcd.o(i.HAL_HCD_HC_Init) refers to stm32f4xx_ll_usb.o(i.USB_HC_Init) for USB_HC_Init
    stm32f4xx_hal_hcd.o(i.HAL_HCD_HC_SubmitRequest) refers to stm32f4xx_ll_usb.o(i.USB_HC_StartXfer) for USB_HC_StartXfer
    stm32f4xx_hal_hcd.o(i.HAL_HCD_IRQHandler) refers to stm32f4xx_ll_usb.o(i.USB_GetMode) for USB_GetMode
    stm32f4xx_hal_hcd.o(i.HAL_HCD_IRQHandler) refers to stm32f4xx_ll_usb.o(i.USB_ReadInterrupts) for USB_ReadInterrupts
    stm32f4xx_hal_hcd.o(i.HAL_HCD_IRQHandler) refers to usbh_conf.o(i.HAL_HCD_Disconnect_Callback) for HAL_HCD_Disconnect_Callback
    stm32f4xx_hal_hcd.o(i.HAL_HCD_IRQHandler) refers to stm32f4xx_ll_usb.o(i.USB_InitFSLSPClkSel) for USB_InitFSLSPClkSel
    stm32f4xx_hal_hcd.o(i.HAL_HCD_IRQHandler) refers to stm32f4xx_hal_hcd.o(i.HCD_Port_IRQHandler) for HCD_Port_IRQHandler
    stm32f4xx_hal_hcd.o(i.HAL_HCD_IRQHandler) refers to usbh_conf.o(i.HAL_HCD_SOF_Callback) for HAL_HCD_SOF_Callback
    stm32f4xx_hal_hcd.o(i.HAL_HCD_IRQHandler) refers to stm32f4xx_ll_usb.o(i.USB_HC_ReadInterrupt) for USB_HC_ReadInterrupt
    stm32f4xx_hal_hcd.o(i.HAL_HCD_IRQHandler) refers to stm32f4xx_hal_hcd.o(i.HCD_HC_IN_IRQHandler) for HCD_HC_IN_IRQHandler
    stm32f4xx_hal_hcd.o(i.HAL_HCD_IRQHandler) refers to stm32f4xx_hal_hcd.o(i.HCD_HC_OUT_IRQHandler) for HCD_HC_OUT_IRQHandler
    stm32f4xx_hal_hcd.o(i.HAL_HCD_IRQHandler) refers to stm32f4xx_hal_hcd.o(i.HCD_RXQLVL_IRQHandler) for HCD_RXQLVL_IRQHandler
    stm32f4xx_hal_hcd.o(i.HAL_HCD_Init) refers to usbh_conf.o(i.HAL_HCD_MspInit) for HAL_HCD_MspInit
    stm32f4xx_hal_hcd.o(i.HAL_HCD_Init) refers to stm32f4xx_ll_usb.o(i.USB_DisableGlobalInt) for USB_DisableGlobalInt
    stm32f4xx_hal_hcd.o(i.HAL_HCD_Init) refers to memcpya.o(.text) for __aeabi_memcpy4
    stm32f4xx_hal_hcd.o(i.HAL_HCD_Init) refers to stm32f4xx_ll_usb.o(i.USB_CoreInit) for USB_CoreInit
    stm32f4xx_hal_hcd.o(i.HAL_HCD_Init) refers to stm32f4xx_ll_usb.o(i.USB_SetCurrentMode) for USB_SetCurrentMode
    stm32f4xx_hal_hcd.o(i.HAL_HCD_Init) refers to stm32f4xx_ll_usb.o(i.USB_HostInit) for USB_HostInit
    stm32f4xx_hal_hcd.o(i.HAL_HCD_ResetPort) refers to stm32f4xx_ll_usb.o(i.USB_ResetPort) for USB_ResetPort
    stm32f4xx_hal_hcd.o(i.HAL_HCD_Start) refers to stm32f4xx_ll_usb.o(i.USB_EnableGlobalInt) for USB_EnableGlobalInt
    stm32f4xx_hal_hcd.o(i.HAL_HCD_Start) refers to stm32f4xx_ll_usb.o(i.USB_DriveVbus) for USB_DriveVbus
    stm32f4xx_hal_hcd.o(i.HAL_HCD_Stop) refers to stm32f4xx_ll_usb.o(i.USB_StopHost) for USB_StopHost
    stm32f4xx_hal_hcd.o(i.HCD_HC_IN_IRQHandler) refers to stm32f4xx_ll_usb.o(i.USB_HC_Halt) for USB_HC_Halt
    stm32f4xx_hal_hcd.o(i.HCD_HC_IN_IRQHandler) refers to usbh_conf.o(i.HAL_HCD_HC_NotifyURBChange_Callback) for HAL_HCD_HC_NotifyURBChange_Callback
    stm32f4xx_hal_hcd.o(i.HCD_HC_OUT_IRQHandler) refers to stm32f4xx_ll_usb.o(i.USB_HC_Halt) for USB_HC_Halt
    stm32f4xx_hal_hcd.o(i.HCD_HC_OUT_IRQHandler) refers to usbh_conf.o(i.HAL_HCD_HC_NotifyURBChange_Callback) for HAL_HCD_HC_NotifyURBChange_Callback
    stm32f4xx_hal_hcd.o(i.HCD_Port_IRQHandler) refers to usbh_conf.o(i.HAL_HCD_Connect_Callback) for HAL_HCD_Connect_Callback
    stm32f4xx_hal_hcd.o(i.HCD_Port_IRQHandler) refers to stm32f4xx_ll_usb.o(i.USB_InitFSLSPClkSel) for USB_InitFSLSPClkSel
    stm32f4xx_hal_hcd.o(i.HCD_RXQLVL_IRQHandler) refers to stm32f4xx_ll_usb.o(i.USB_ReadPacket) for USB_ReadPacket
    stm32f4xx_hal_dma_ex.o(i.HAL_DMAEx_MultiBufferStart) refers to stm32f4xx_hal_dma_ex.o(i.DMA_MultiBufferSetConfig) for DMA_MultiBufferSetConfig
    stm32f4xx_hal_dma_ex.o(i.HAL_DMAEx_MultiBufferStart_IT) refers to stm32f4xx_hal_dma_ex.o(i.DMA_MultiBufferSetConfig) for DMA_MultiBufferSetConfig
    stm32f4xx_hal_rcc.o(i.HAL_RCC_ClockConfig) refers to stm32f4xx_hal.o(i.HAL_GetTick) for HAL_GetTick
    stm32f4xx_hal_rcc.o(i.HAL_RCC_ClockConfig) refers to stm32f4xx_hal.o(i.HAL_InitTick) for HAL_InitTick
    stm32f4xx_hal_rcc.o(i.HAL_RCC_GetHCLKFreq) refers to stm32f4xx_hal_rcc.o(i.HAL_RCC_GetSysClockFreq) for HAL_RCC_GetSysClockFreq
    stm32f4xx_hal_rcc.o(i.HAL_RCC_GetHCLKFreq) refers to stm32f4xx_hal_rcc.o(.constdata) for .constdata
    stm32f4xx_hal_rcc.o(i.HAL_RCC_GetHCLKFreq) refers to system_stm32f4xx.o(.data) for SystemCoreClock
    stm32f4xx_hal_rcc.o(i.HAL_RCC_GetPCLK1Freq) refers to stm32f4xx_hal_rcc.o(i.HAL_RCC_GetHCLKFreq) for HAL_RCC_GetHCLKFreq
    stm32f4xx_hal_rcc.o(i.HAL_RCC_GetPCLK1Freq) refers to stm32f4xx_hal_rcc.o(.constdata) for .constdata
    stm32f4xx_hal_rcc.o(i.HAL_RCC_GetPCLK2Freq) refers to stm32f4xx_hal_rcc.o(i.HAL_RCC_GetHCLKFreq) for HAL_RCC_GetHCLKFreq
    stm32f4xx_hal_rcc.o(i.HAL_RCC_GetPCLK2Freq) refers to stm32f4xx_hal_rcc.o(.constdata) for .constdata
    stm32f4xx_hal_rcc.o(i.HAL_RCC_MCOConfig) refers to stm32f4xx_hal_gpio.o(i.HAL_GPIO_Init) for HAL_GPIO_Init
    stm32f4xx_hal_rcc.o(i.HAL_RCC_NMI_IRQHandler) refers to stm32f4xx_hal_rcc.o(i.HAL_RCC_CSSCallback) for HAL_RCC_CSSCallback
    stm32f4xx_hal_rcc.o(i.HAL_RCC_OscConfig) refers to stm32f4xx_hal.o(i.HAL_GetTick) for HAL_GetTick
    stm32f4xx_hal_pwr_ex.o(i.HAL_PWREx_ControlVoltageScaling) refers to stm32f4xx_hal.o(i.HAL_GetTick) for HAL_GetTick
    stm32f4xx_hal_pwr_ex.o(i.HAL_PWREx_DisableBkUpReg) refers to stm32f4xx_hal.o(i.HAL_GetTick) for HAL_GetTick
    stm32f4xx_hal_pwr_ex.o(i.HAL_PWREx_EnableBkUpReg) refers to stm32f4xx_hal.o(i.HAL_GetTick) for HAL_GetTick
    stm32f4xx_hal_dma.o(i.HAL_DMA_Abort) refers to stm32f4xx_hal.o(i.HAL_GetTick) for HAL_GetTick
    stm32f4xx_hal_dma.o(i.HAL_DMA_PollForTransfer) refers to stm32f4xx_hal.o(i.HAL_GetTick) for HAL_GetTick
    stm32f4xx_hal_dma.o(i.HAL_DMA_Start) refers to stm32f4xx_hal_dma.o(i.DMA_SetConfig) for DMA_SetConfig
    stm32f4xx_hal_dma.o(i.HAL_DMA_Start_IT) refers to stm32f4xx_hal_dma.o(i.DMA_SetConfig) for DMA_SetConfig
    stm32f4xx_hal_flash.o(i.FLASH_SetErrorCode) refers to stm32f4xx_hal_flash.o(.bss) for .bss
    stm32f4xx_hal_flash.o(i.FLASH_WaitForLastOperation) refers to stm32f4xx_hal.o(i.HAL_GetTick) for HAL_GetTick
    stm32f4xx_hal_flash.o(i.FLASH_WaitForLastOperation) refers to stm32f4xx_hal_flash.o(i.FLASH_SetErrorCode) for FLASH_SetErrorCode
    stm32f4xx_hal_flash.o(i.FLASH_WaitForLastOperation) refers to stm32f4xx_hal_flash.o(.bss) for .bss
    stm32f4xx_hal_flash.o(i.HAL_FLASH_GetError) refers to stm32f4xx_hal_flash.o(.bss) for .bss
    stm32f4xx_hal_flash.o(i.HAL_FLASH_IRQHandler) refers to stm32f4xx_hal_flash.o(i.HAL_FLASH_EndOfOperationCallback) for HAL_FLASH_EndOfOperationCallback
    stm32f4xx_hal_flash.o(i.HAL_FLASH_IRQHandler) refers to stm32f4xx_hal_flash.o(i.FLASH_SetErrorCode) for FLASH_SetErrorCode
    stm32f4xx_hal_flash.o(i.HAL_FLASH_IRQHandler) refers to stm32f4xx_hal_flash.o(i.HAL_FLASH_OperationErrorCallback) for HAL_FLASH_OperationErrorCallback
    stm32f4xx_hal_flash.o(i.HAL_FLASH_IRQHandler) refers to stm32f4xx_hal_flash_ex.o(i.FLASH_Erase_Sector) for FLASH_Erase_Sector
    stm32f4xx_hal_flash.o(i.HAL_FLASH_IRQHandler) refers to stm32f4xx_hal_flash.o(.bss) for .bss
    stm32f4xx_hal_flash.o(i.HAL_FLASH_OB_Launch) refers to stm32f4xx_hal_flash.o(i.FLASH_WaitForLastOperation) for FLASH_WaitForLastOperation
    stm32f4xx_hal_flash.o(i.HAL_FLASH_Program) refers to stm32f4xx_hal_flash.o(i.FLASH_WaitForLastOperation) for FLASH_WaitForLastOperation
    stm32f4xx_hal_flash.o(i.HAL_FLASH_Program) refers to stm32f4xx_hal_flash.o(i.FLASH_Program_DoubleWord) for FLASH_Program_DoubleWord
    stm32f4xx_hal_flash.o(i.HAL_FLASH_Program) refers to stm32f4xx_hal_flash.o(i.FLASH_Program_Byte) for FLASH_Program_Byte
    stm32f4xx_hal_flash.o(i.HAL_FLASH_Program) refers to stm32f4xx_hal_flash.o(i.FLASH_Program_HalfWord) for FLASH_Program_HalfWord
    stm32f4xx_hal_flash.o(i.HAL_FLASH_Program) refers to stm32f4xx_hal_flash.o(i.FLASH_Program_Word) for FLASH_Program_Word
    stm32f4xx_hal_flash.o(i.HAL_FLASH_Program) refers to stm32f4xx_hal_flash.o(.bss) for .bss
    stm32f4xx_hal_flash.o(i.HAL_FLASH_Program_IT) refers to stm32f4xx_hal_flash.o(i.FLASH_Program_DoubleWord) for FLASH_Program_DoubleWord
    stm32f4xx_hal_flash.o(i.HAL_FLASH_Program_IT) refers to stm32f4xx_hal_flash.o(i.FLASH_Program_Byte) for FLASH_Program_Byte
    stm32f4xx_hal_flash.o(i.HAL_FLASH_Program_IT) refers to stm32f4xx_hal_flash.o(i.FLASH_Program_HalfWord) for FLASH_Program_HalfWord
    stm32f4xx_hal_flash.o(i.HAL_FLASH_Program_IT) refers to stm32f4xx_hal_flash.o(i.FLASH_Program_Word) for FLASH_Program_Word
    stm32f4xx_hal_flash.o(i.HAL_FLASH_Program_IT) refers to stm32f4xx_hal_flash.o(.bss) for .bss
    stm32f4xx_hal_adc_ex.o(i.ADC_MultiModeDMAConvCplt) refers to stm32f4xx_hal_adc.o(i.HAL_ADC_ConvCpltCallback) for HAL_ADC_ConvCpltCallback
    stm32f4xx_hal_adc_ex.o(i.ADC_MultiModeDMAError) refers to stm32f4xx_hal_adc.o(i.HAL_ADC_ErrorCallback) for HAL_ADC_ErrorCallback
    stm32f4xx_hal_adc_ex.o(i.ADC_MultiModeDMAHalfConvCplt) refers to stm32f4xx_hal_adc.o(i.HAL_ADC_ConvHalfCpltCallback) for HAL_ADC_ConvHalfCpltCallback
    stm32f4xx_hal_adc_ex.o(i.HAL_ADCEx_InjectedPollForConversion) refers to stm32f4xx_hal.o(i.HAL_GetTick) for HAL_GetTick
    stm32f4xx_hal_adc_ex.o(i.HAL_ADCEx_InjectedStart) refers to system_stm32f4xx.o(.data) for SystemCoreClock
    stm32f4xx_hal_adc_ex.o(i.HAL_ADCEx_InjectedStart_IT) refers to system_stm32f4xx.o(.data) for SystemCoreClock
    stm32f4xx_hal_adc_ex.o(i.HAL_ADCEx_MultiModeStart_DMA) refers to stm32f4xx_hal_dma.o(i.HAL_DMA_Start_IT) for HAL_DMA_Start_IT
    stm32f4xx_hal_adc_ex.o(i.HAL_ADCEx_MultiModeStart_DMA) refers to stm32f4xx_hal_adc_ex.o(i.ADC_MultiModeDMAConvCplt) for ADC_MultiModeDMAConvCplt
    stm32f4xx_hal_adc_ex.o(i.HAL_ADCEx_MultiModeStart_DMA) refers to stm32f4xx_hal_adc_ex.o(i.ADC_MultiModeDMAHalfConvCplt) for ADC_MultiModeDMAHalfConvCplt
    stm32f4xx_hal_adc_ex.o(i.HAL_ADCEx_MultiModeStart_DMA) refers to stm32f4xx_hal_adc_ex.o(i.ADC_MultiModeDMAError) for ADC_MultiModeDMAError
    stm32f4xx_hal_adc_ex.o(i.HAL_ADCEx_MultiModeStart_DMA) refers to system_stm32f4xx.o(.data) for SystemCoreClock
    stm32f4xx_hal_adc_ex.o(i.HAL_ADCEx_MultiModeStop_DMA) refers to stm32f4xx_hal_dma.o(i.HAL_DMA_Abort) for HAL_DMA_Abort
    stm32f4xx_hal_can.o(i.CAN_Receive_IT) refers to stm32f4xx_hal_can.o(i.HAL_CAN_RxCpltCallback) for HAL_CAN_RxCpltCallback
    stm32f4xx_hal_can.o(i.CAN_Transmit_IT) refers to stm32f4xx_hal_can.o(i.HAL_CAN_TxCpltCallback) for HAL_CAN_TxCpltCallback
    stm32f4xx_hal_can.o(i.HAL_CAN_DeInit) refers to stm32f4xx_hal_msp.o(i.HAL_CAN_MspDeInit) for HAL_CAN_MspDeInit
    stm32f4xx_hal_can.o(i.HAL_CAN_IRQHandler) refers to stm32f4xx_hal_can.o(i.CAN_Transmit_IT) for CAN_Transmit_IT
    stm32f4xx_hal_can.o(i.HAL_CAN_IRQHandler) refers to stm32f4xx_hal_can.o(i.CAN_Receive_IT) for CAN_Receive_IT
    stm32f4xx_hal_can.o(i.HAL_CAN_IRQHandler) refers to stm32f4xx_hal_can.o(i.HAL_CAN_ErrorCallback) for HAL_CAN_ErrorCallback
    stm32f4xx_hal_can.o(i.HAL_CAN_Init) refers to stm32f4xx_hal_msp.o(i.HAL_CAN_MspInit) for HAL_CAN_MspInit
    stm32f4xx_hal_can.o(i.HAL_CAN_Init) refers to stm32f4xx_hal.o(i.HAL_GetTick) for HAL_GetTick
    stm32f4xx_hal_can.o(i.HAL_CAN_Receive) refers to stm32f4xx_hal.o(i.HAL_GetTick) for HAL_GetTick
    stm32f4xx_hal_can.o(i.HAL_CAN_Sleep) refers to stm32f4xx_hal.o(i.HAL_GetTick) for HAL_GetTick
    stm32f4xx_hal_can.o(i.HAL_CAN_Transmit) refers to stm32f4xx_hal.o(i.HAL_GetTick) for HAL_GetTick
    stm32f4xx_hal_can.o(i.HAL_CAN_WakeUp) refers to stm32f4xx_hal.o(i.HAL_GetTick) for HAL_GetTick
    stm32f4xx_hal_adc.o(i.ADC_DMAConvCplt) refers to stm32f4xx_hal_adc.o(i.HAL_ADC_ConvCpltCallback) for HAL_ADC_ConvCpltCallback
    stm32f4xx_hal_adc.o(i.ADC_DMAError) refers to stm32f4xx_hal_adc.o(i.HAL_ADC_ErrorCallback) for HAL_ADC_ErrorCallback
    stm32f4xx_hal_adc.o(i.ADC_DMAHalfConvCplt) refers to stm32f4xx_hal_adc.o(i.HAL_ADC_ConvHalfCpltCallback) for HAL_ADC_ConvHalfCpltCallback
    stm32f4xx_hal_adc.o(i.HAL_ADC_ConfigChannel) refers to system_stm32f4xx.o(.data) for SystemCoreClock
    stm32f4xx_hal_adc.o(i.HAL_ADC_DeInit) refers to stm32f4xx_hal_msp.o(i.HAL_ADC_MspDeInit) for HAL_ADC_MspDeInit
    stm32f4xx_hal_adc.o(i.HAL_ADC_IRQHandler) refers to stm32f4xx_hal_adc.o(i.HAL_ADC_ConvCpltCallback) for HAL_ADC_ConvCpltCallback
    stm32f4xx_hal_adc.o(i.HAL_ADC_IRQHandler) refers to stm32f4xx_hal_adc_ex.o(i.HAL_ADCEx_InjectedConvCpltCallback) for HAL_ADCEx_InjectedConvCpltCallback
    stm32f4xx_hal_adc.o(i.HAL_ADC_IRQHandler) refers to stm32f4xx_hal_adc.o(i.HAL_ADC_LevelOutOfWindowCallback) for HAL_ADC_LevelOutOfWindowCallback
    stm32f4xx_hal_adc.o(i.HAL_ADC_IRQHandler) refers to stm32f4xx_hal_adc.o(i.HAL_ADC_ErrorCallback) for HAL_ADC_ErrorCallback
    stm32f4xx_hal_adc.o(i.HAL_ADC_Init) refers to stm32f4xx_hal_msp.o(i.HAL_ADC_MspInit) for HAL_ADC_MspInit
    stm32f4xx_hal_adc.o(i.HAL_ADC_Init) refers to stm32f4xx_hal_adc.o(i.ADC_Init) for ADC_Init
    stm32f4xx_hal_adc.o(i.HAL_ADC_PollForConversion) refers to stm32f4xx_hal.o(i.HAL_GetTick) for HAL_GetTick
    stm32f4xx_hal_adc.o(i.HAL_ADC_PollForEvent) refers to stm32f4xx_hal.o(i.HAL_GetTick) for HAL_GetTick
    stm32f4xx_hal_adc.o(i.HAL_ADC_Start) refers to system_stm32f4xx.o(.data) for SystemCoreClock
    stm32f4xx_hal_adc.o(i.HAL_ADC_Start_DMA) refers to stm32f4xx_hal_dma.o(i.HAL_DMA_Start_IT) for HAL_DMA_Start_IT
    stm32f4xx_hal_adc.o(i.HAL_ADC_Start_DMA) refers to stm32f4xx_hal_adc.o(i.ADC_DMAConvCplt) for ADC_DMAConvCplt
    stm32f4xx_hal_adc.o(i.HAL_ADC_Start_DMA) refers to stm32f4xx_hal_adc.o(i.ADC_DMAHalfConvCplt) for ADC_DMAHalfConvCplt
    stm32f4xx_hal_adc.o(i.HAL_ADC_Start_DMA) refers to stm32f4xx_hal_adc.o(i.ADC_DMAError) for ADC_DMAError
    stm32f4xx_hal_adc.o(i.HAL_ADC_Start_DMA) refers to system_stm32f4xx.o(.data) for SystemCoreClock
    stm32f4xx_hal_adc.o(i.HAL_ADC_Start_IT) refers to system_stm32f4xx.o(.data) for SystemCoreClock
    stm32f4xx_hal_adc.o(i.HAL_ADC_Stop_DMA) refers to stm32f4xx_hal_dma.o(i.HAL_DMA_Abort) for HAL_DMA_Abort
    stm32f4xx_ll_usb.o(i.USB_ActivateDedicatedEndpoint) refers to stm32f4xx_ll_usb.o(.data) for .data
    stm32f4xx_ll_usb.o(i.USB_CoreInit) refers to stm32f4xx_ll_usb.o(i.USB_CoreReset) for USB_CoreReset
    stm32f4xx_ll_usb.o(i.USB_DevConnect) refers to stm32f4xx_hal.o(i.HAL_Delay) for HAL_Delay
    stm32f4xx_ll_usb.o(i.USB_DevDisconnect) refers to stm32f4xx_hal.o(i.HAL_Delay) for HAL_Delay
    stm32f4xx_ll_usb.o(i.USB_DevInit) refers to stm32f4xx_ll_usb.o(i.USB_FlushTxFifo) for USB_FlushTxFifo
    stm32f4xx_ll_usb.o(i.USB_DevInit) refers to stm32f4xx_ll_usb.o(i.USB_FlushRxFifo) for USB_FlushRxFifo
    stm32f4xx_ll_usb.o(i.USB_EPStartXfer) refers to stm32f4xx_ll_usb.o(i.USB_WritePacket) for USB_WritePacket
    stm32f4xx_ll_usb.o(i.USB_HC_StartXfer) refers to stm32f4xx_ll_usb.o(i.USB_DoPing) for USB_DoPing
    stm32f4xx_ll_usb.o(i.USB_HC_StartXfer) refers to stm32f4xx_ll_usb.o(i.USB_WritePacket) for USB_WritePacket
    stm32f4xx_ll_usb.o(i.USB_HostInit) refers to stm32f4xx_ll_usb.o(i.USB_FlushTxFifo) for USB_FlushTxFifo
    stm32f4xx_ll_usb.o(i.USB_HostInit) refers to stm32f4xx_ll_usb.o(i.USB_FlushRxFifo) for USB_FlushRxFifo
    stm32f4xx_ll_usb.o(i.USB_HostInit) refers to stm32f4xx_ll_usb.o(i.USB_DriveVbus) for USB_DriveVbus
    stm32f4xx_ll_usb.o(i.USB_HostInit) refers to stm32f4xx_hal.o(i.HAL_Delay) for HAL_Delay
    stm32f4xx_ll_usb.o(i.USB_ResetPort) refers to stm32f4xx_hal.o(i.HAL_Delay) for HAL_Delay
    stm32f4xx_ll_usb.o(i.USB_SetCurrentMode) refers to stm32f4xx_hal.o(i.HAL_Delay) for HAL_Delay
    stm32f4xx_ll_usb.o(i.USB_StopDevice) refers to stm32f4xx_ll_usb.o(i.USB_FlushRxFifo) for USB_FlushRxFifo
    stm32f4xx_ll_usb.o(i.USB_StopDevice) refers to stm32f4xx_ll_usb.o(i.USB_FlushTxFifo) for USB_FlushTxFifo
    stm32f4xx_ll_usb.o(i.USB_StopHost) refers to stm32f4xx_ll_usb.o(i.USB_FlushTxFifo) for USB_FlushTxFifo
    stm32f4xx_ll_usb.o(i.USB_StopHost) refers to stm32f4xx_ll_usb.o(i.USB_FlushRxFifo) for USB_FlushRxFifo
    startup_stm32f407xx.o(RESET) refers to startup_stm32f407xx.o(STACK) for __initial_sp
    startup_stm32f407xx.o(RESET) refers to startup_stm32f407xx.o(.text) for Reset_Handler
    startup_stm32f407xx.o(RESET) refers to port.o(.emb_text) for SVC_Handler
    startup_stm32f407xx.o(RESET) refers to stm32f4xx_it.o(i.SysTick_Handler) for SysTick_Handler
    startup_stm32f407xx.o(RESET) refers to stm32f4xx_it.o(i.CAN1_RX0_IRQHandler) for CAN1_RX0_IRQHandler
    startup_stm32f407xx.o(RESET) refers to stm32f4xx_it.o(i.OTG_FS_IRQHandler) for OTG_FS_IRQHandler
    startup_stm32f407xx.o(.text) refers to system_stm32f4xx.o(i.SystemInit) for SystemInit
    startup_stm32f407xx.o(.text) refers to entry.o(.ARM.Collect$$$$00000000) for __main
    port.o(.emb_text) refers to tasks.o(i.vTaskSwitchContext) for vTaskSwitchContext
    port.o(.emb_text) refers to tasks.o(.data) for pxCurrentTCB
    port.o(i.prvTaskExitError) refers to port.o(.emb_text) for ulPortSetInterruptMask
    port.o(i.prvTaskExitError) refers to port.o(.data) for .data
    port.o(i.pxPortInitialiseStack) refers to port.o(i.prvTaskExitError) for prvTaskExitError
    port.o(i.vPortEndScheduler) refers to port.o(.emb_text) for ulPortSetInterruptMask
    port.o(i.vPortEndScheduler) refers to port.o(.data) for .data
    port.o(i.vPortEnterCritical) refers to port.o(.emb_text) for ulPortSetInterruptMask
    port.o(i.vPortEnterCritical) refers to port.o(.data) for .data
    port.o(i.vPortExitCritical) refers to port.o(.emb_text) for vPortClearInterruptMask
    port.o(i.vPortExitCritical) refers to port.o(.data) for .data
    port.o(i.vPortSetupTimerInterrupt) refers to system_stm32f4xx.o(.data) for SystemCoreClock
    port.o(i.vPortValidateInterruptPriority) refers to port.o(.emb_text) for vPortGetIPSR
    port.o(i.vPortValidateInterruptPriority) refers to port.o(.data) for .data
    port.o(i.xPortStartScheduler) refers to port.o(i.vPortSetupTimerInterrupt) for vPortSetupTimerInterrupt
    port.o(i.xPortStartScheduler) refers to port.o(.emb_text) for __asm___6_port_c_39a90d8d__prvEnableVFP
    port.o(i.xPortStartScheduler) refers to port.o(.data) for .data
    port.o(i.xPortSysTickHandler) refers to port.o(.emb_text) for ulPortSetInterruptMask
    port.o(i.xPortSysTickHandler) refers to tasks.o(i.xTaskIncrementTick) for xTaskIncrementTick
    tasks.o(i.prvAddCurrentTaskToDelayedList) refers to list.o(i.vListInsert) for vListInsert
    tasks.o(i.prvAddCurrentTaskToDelayedList) refers to tasks.o(.data) for .data
    tasks.o(i.prvCheckTasksWaitingTermination) refers to tasks.o(i.vTaskSuspendAll) for vTaskSuspendAll
    tasks.o(i.prvCheckTasksWaitingTermination) refers to tasks.o(i.xTaskResumeAll) for xTaskResumeAll
    tasks.o(i.prvCheckTasksWaitingTermination) refers to port.o(i.vPortEnterCritical) for vPortEnterCritical
    tasks.o(i.prvCheckTasksWaitingTermination) refers to list.o(i.uxListRemove) for uxListRemove
    tasks.o(i.prvCheckTasksWaitingTermination) refers to port.o(i.vPortExitCritical) for vPortExitCritical
    tasks.o(i.prvCheckTasksWaitingTermination) refers to heap_4.o(i.vPortFree) for vPortFree
    tasks.o(i.prvCheckTasksWaitingTermination) refers to tasks.o(.bss) for .bss
    tasks.o(i.prvCheckTasksWaitingTermination) refers to tasks.o(.data) for .data
    tasks.o(i.prvIdleTask) refers to tasks.o(i.prvCheckTasksWaitingTermination) for prvCheckTasksWaitingTermination
    tasks.o(i.prvIdleTask) refers to port.o(i.vPortYield) for vPortYield
    tasks.o(i.prvIdleTask) refers to tasks.o(.bss) for .bss
    tasks.o(i.prvResetNextTaskUnblockTime) refers to tasks.o(.data) for .data
    tasks.o(i.prvTaskIsTaskSuspended) refers to port.o(.emb_text) for ulPortSetInterruptMask
    tasks.o(i.prvTaskIsTaskSuspended) refers to tasks.o(.bss) for .bss
    tasks.o(i.pvTaskIncrementMutexHeldCount) refers to tasks.o(.data) for .data
    tasks.o(i.uxTaskGetNumberOfTasks) refers to tasks.o(.data) for .data
    tasks.o(i.uxTaskGetSystemState) refers to tasks.o(i.vTaskSuspendAll) for vTaskSuspendAll
    tasks.o(i.uxTaskGetSystemState) refers to tasks.o(i.prvListTaskWithinSingleList) for prvListTaskWithinSingleList
    tasks.o(i.uxTaskGetSystemState) refers to tasks.o(i.xTaskResumeAll) for xTaskResumeAll
    tasks.o(i.uxTaskGetSystemState) refers to tasks.o(.data) for .data
    tasks.o(i.uxTaskGetSystemState) refers to tasks.o(.bss) for .bss
    tasks.o(i.uxTaskPriorityGet) refers to port.o(i.vPortEnterCritical) for vPortEnterCritical
    tasks.o(i.uxTaskPriorityGet) refers to port.o(i.vPortExitCritical) for vPortExitCritical
    tasks.o(i.uxTaskPriorityGet) refers to tasks.o(.data) for .data
    tasks.o(i.uxTaskResetEventItemValue) refers to tasks.o(.data) for .data
    tasks.o(i.vTaskDelay) refers to port.o(.emb_text) for ulPortSetInterruptMask
    tasks.o(i.vTaskDelay) refers to tasks.o(i.vTaskSuspendAll) for vTaskSuspendAll
    tasks.o(i.vTaskDelay) refers to list.o(i.uxListRemove) for uxListRemove
    tasks.o(i.vTaskDelay) refers to tasks.o(i.prvAddCurrentTaskToDelayedList) for prvAddCurrentTaskToDelayedList
    tasks.o(i.vTaskDelay) refers to tasks.o(i.xTaskResumeAll) for xTaskResumeAll
    tasks.o(i.vTaskDelay) refers to port.o(i.vPortYield) for vPortYield
    tasks.o(i.vTaskDelay) refers to tasks.o(.data) for .data
    tasks.o(i.vTaskDelete) refers to port.o(i.vPortEnterCritical) for vPortEnterCritical
    tasks.o(i.vTaskDelete) refers to list.o(i.uxListRemove) for uxListRemove
    tasks.o(i.vTaskDelete) refers to list.o(i.vListInsertEnd) for vListInsertEnd
    tasks.o(i.vTaskDelete) refers to port.o(i.vPortExitCritical) for vPortExitCritical
    tasks.o(i.vTaskDelete) refers to port.o(.emb_text) for ulPortSetInterruptMask
    tasks.o(i.vTaskDelete) refers to port.o(i.vPortYield) for vPortYield
    tasks.o(i.vTaskDelete) refers to tasks.o(i.prvResetNextTaskUnblockTime) for prvResetNextTaskUnblockTime
    tasks.o(i.vTaskDelete) refers to tasks.o(.data) for .data
    tasks.o(i.vTaskDelete) refers to tasks.o(.bss) for .bss
    tasks.o(i.vTaskEndScheduler) refers to port.o(.emb_text) for ulPortSetInterruptMask
    tasks.o(i.vTaskEndScheduler) refers to port.o(i.vPortEndScheduler) for vPortEndScheduler
    tasks.o(i.vTaskEndScheduler) refers to tasks.o(.data) for .data
    tasks.o(i.vTaskMissedYield) refers to tasks.o(.data) for .data
    tasks.o(i.vTaskPlaceOnEventList) refers to list.o(i.vListInsert) for vListInsert
    tasks.o(i.vTaskPlaceOnEventList) refers to list.o(i.uxListRemove) for uxListRemove
    tasks.o(i.vTaskPlaceOnEventList) refers to port.o(.emb_text) for ulPortSetInterruptMask
    tasks.o(i.vTaskPlaceOnEventList) refers to tasks.o(i.prvAddCurrentTaskToDelayedList) for prvAddCurrentTaskToDelayedList
    tasks.o(i.vTaskPlaceOnEventList) refers to list.o(i.vListInsertEnd) for vListInsertEnd
    tasks.o(i.vTaskPlaceOnEventList) refers to tasks.o(.data) for .data
    tasks.o(i.vTaskPlaceOnEventList) refers to tasks.o(.bss) for .bss
    tasks.o(i.vTaskPlaceOnUnorderedEventList) refers to list.o(i.vListInsertEnd) for vListInsertEnd
    tasks.o(i.vTaskPlaceOnUnorderedEventList) refers to list.o(i.uxListRemove) for uxListRemove
    tasks.o(i.vTaskPlaceOnUnorderedEventList) refers to port.o(.emb_text) for ulPortSetInterruptMask
    tasks.o(i.vTaskPlaceOnUnorderedEventList) refers to tasks.o(i.prvAddCurrentTaskToDelayedList) for prvAddCurrentTaskToDelayedList
    tasks.o(i.vTaskPlaceOnUnorderedEventList) refers to tasks.o(.data) for .data
    tasks.o(i.vTaskPlaceOnUnorderedEventList) refers to tasks.o(.bss) for .bss
    tasks.o(i.vTaskPriorityInherit) refers to list.o(i.uxListRemove) for uxListRemove
    tasks.o(i.vTaskPriorityInherit) refers to list.o(i.vListInsertEnd) for vListInsertEnd
    tasks.o(i.vTaskPriorityInherit) refers to tasks.o(.data) for .data
    tasks.o(i.vTaskPriorityInherit) refers to tasks.o(.bss) for .bss
    tasks.o(i.vTaskPrioritySet) refers to port.o(.emb_text) for ulPortSetInterruptMask
    tasks.o(i.vTaskPrioritySet) refers to port.o(i.vPortEnterCritical) for vPortEnterCritical
    tasks.o(i.vTaskPrioritySet) refers to list.o(i.uxListRemove) for uxListRemove
    tasks.o(i.vTaskPrioritySet) refers to list.o(i.vListInsertEnd) for vListInsertEnd
    tasks.o(i.vTaskPrioritySet) refers to port.o(i.vPortYield) for vPortYield
    tasks.o(i.vTaskPrioritySet) refers to port.o(i.vPortExitCritical) for vPortExitCritical
    tasks.o(i.vTaskPrioritySet) refers to tasks.o(.data) for .data
    tasks.o(i.vTaskPrioritySet) refers to tasks.o(.bss) for .bss
    tasks.o(i.vTaskResume) refers to port.o(i.vPortEnterCritical) for vPortEnterCritical
    tasks.o(i.vTaskResume) refers to tasks.o(i.prvTaskIsTaskSuspended) for prvTaskIsTaskSuspended
    tasks.o(i.vTaskResume) refers to port.o(.emb_text) for ulPortSetInterruptMask
    tasks.o(i.vTaskResume) refers to list.o(i.uxListRemove) for uxListRemove
    tasks.o(i.vTaskResume) refers to list.o(i.vListInsertEnd) for vListInsertEnd
    tasks.o(i.vTaskResume) refers to port.o(i.vPortYield) for vPortYield
    tasks.o(i.vTaskResume) refers to port.o(i.vPortExitCritical) for vPortExitCritical
    tasks.o(i.vTaskResume) refers to tasks.o(.data) for .data
    tasks.o(i.vTaskResume) refers to tasks.o(.bss) for .bss
    tasks.o(i.vTaskSetTimeOutState) refers to port.o(.emb_text) for ulPortSetInterruptMask
    tasks.o(i.vTaskSetTimeOutState) refers to tasks.o(.data) for .data
    tasks.o(i.vTaskStartScheduler) refers to tasks.o(i.xTaskGenericCreate) for xTaskGenericCreate
    tasks.o(i.vTaskStartScheduler) refers to port.o(.emb_text) for ulPortSetInterruptMask
    tasks.o(i.vTaskStartScheduler) refers to port.o(i.xPortStartScheduler) for xPortStartScheduler
    tasks.o(i.vTaskStartScheduler) refers to tasks.o(i.prvIdleTask) for prvIdleTask
    tasks.o(i.vTaskStartScheduler) refers to tasks.o(.data) for .data
    tasks.o(i.vTaskSuspend) refers to port.o(i.vPortEnterCritical) for vPortEnterCritical
    tasks.o(i.vTaskSuspend) refers to list.o(i.uxListRemove) for uxListRemove
    tasks.o(i.vTaskSuspend) refers to list.o(i.vListInsertEnd) for vListInsertEnd
    tasks.o(i.vTaskSuspend) refers to port.o(i.vPortExitCritical) for vPortExitCritical
    tasks.o(i.vTaskSuspend) refers to port.o(.emb_text) for ulPortSetInterruptMask
    tasks.o(i.vTaskSuspend) refers to port.o(i.vPortYield) for vPortYield
    tasks.o(i.vTaskSuspend) refers to tasks.o(i.vTaskSwitchContext) for vTaskSwitchContext
    tasks.o(i.vTaskSuspend) refers to tasks.o(i.prvResetNextTaskUnblockTime) for prvResetNextTaskUnblockTime
    tasks.o(i.vTaskSuspend) refers to tasks.o(.data) for .data
    tasks.o(i.vTaskSuspend) refers to tasks.o(.bss) for .bss
    tasks.o(i.vTaskSuspendAll) refers to tasks.o(.data) for .data
    tasks.o(i.vTaskSwitchContext) refers to port.o(.emb_text) for ulPortSetInterruptMask
    tasks.o(i.vTaskSwitchContext) refers to tasks.o(.data) for .data
    tasks.o(i.vTaskSwitchContext) refers to tasks.o(.bss) for .bss
    tasks.o(i.xTaskCheckForTimeOut) refers to port.o(i.vPortEnterCritical) for vPortEnterCritical
    tasks.o(i.xTaskCheckForTimeOut) refers to tasks.o(i.vTaskSetTimeOutState) for vTaskSetTimeOutState
    tasks.o(i.xTaskCheckForTimeOut) refers to port.o(.emb_text) for ulPortSetInterruptMask
    tasks.o(i.xTaskCheckForTimeOut) refers to port.o(i.vPortExitCritical) for vPortExitCritical
    tasks.o(i.xTaskCheckForTimeOut) refers to tasks.o(.data) for .data
    tasks.o(i.xTaskGenericCreate) refers to port.o(.emb_text) for ulPortSetInterruptMask
    tasks.o(i.xTaskGenericCreate) refers to heap_4.o(i.pvPortMalloc) for pvPortMalloc
    tasks.o(i.xTaskGenericCreate) refers to memseta.o(.text) for __aeabi_memset
    tasks.o(i.xTaskGenericCreate) refers to heap_4.o(i.vPortFree) for vPortFree
    tasks.o(i.xTaskGenericCreate) refers to list.o(i.vListInitialiseItem) for vListInitialiseItem
    tasks.o(i.xTaskGenericCreate) refers to port.o(i.pxPortInitialiseStack) for pxPortInitialiseStack
    tasks.o(i.xTaskGenericCreate) refers to port.o(i.vPortEnterCritical) for vPortEnterCritical
    tasks.o(i.xTaskGenericCreate) refers to list.o(i.vListInitialise) for vListInitialise
    tasks.o(i.xTaskGenericCreate) refers to list.o(i.vListInsertEnd) for vListInsertEnd
    tasks.o(i.xTaskGenericCreate) refers to port.o(i.vPortExitCritical) for vPortExitCritical
    tasks.o(i.xTaskGenericCreate) refers to port.o(i.vPortYield) for vPortYield
    tasks.o(i.xTaskGenericCreate) refers to tasks.o(.data) for .data
    tasks.o(i.xTaskGenericCreate) refers to tasks.o(.bss) for .bss
    tasks.o(i.xTaskGetCurrentTaskHandle) refers to tasks.o(.data) for .data
    tasks.o(i.xTaskGetSchedulerState) refers to tasks.o(.data) for .data
    tasks.o(i.xTaskGetTickCount) refers to port.o(i.vPortEnterCritical) for vPortEnterCritical
    tasks.o(i.xTaskGetTickCount) refers to port.o(i.vPortExitCritical) for vPortExitCritical
    tasks.o(i.xTaskGetTickCount) refers to tasks.o(.data) for .data
    tasks.o(i.xTaskGetTickCountFromISR) refers to port.o(i.vPortValidateInterruptPriority) for vPortValidateInterruptPriority
    tasks.o(i.xTaskGetTickCountFromISR) refers to port.o(.emb_text) for ulPortSetInterruptMask
    tasks.o(i.xTaskGetTickCountFromISR) refers to tasks.o(.data) for .data
    tasks.o(i.xTaskIncrementTick) refers to port.o(.emb_text) for ulPortSetInterruptMask
    tasks.o(i.xTaskIncrementTick) refers to tasks.o(i.prvResetNextTaskUnblockTime) for prvResetNextTaskUnblockTime
    tasks.o(i.xTaskIncrementTick) refers to list.o(i.uxListRemove) for uxListRemove
    tasks.o(i.xTaskIncrementTick) refers to list.o(i.vListInsertEnd) for vListInsertEnd
    tasks.o(i.xTaskIncrementTick) refers to tasks.o(.data) for .data
    tasks.o(i.xTaskIncrementTick) refers to tasks.o(.bss) for .bss
    tasks.o(i.xTaskPriorityDisinherit) refers to port.o(.emb_text) for ulPortSetInterruptMask
    tasks.o(i.xTaskPriorityDisinherit) refers to list.o(i.uxListRemove) for uxListRemove
    tasks.o(i.xTaskPriorityDisinherit) refers to list.o(i.vListInsertEnd) for vListInsertEnd
    tasks.o(i.xTaskPriorityDisinherit) refers to tasks.o(.bss) for .bss
    tasks.o(i.xTaskPriorityDisinherit) refers to tasks.o(.data) for .data
    tasks.o(i.xTaskRemoveFromEventList) refers to list.o(i.uxListRemove) for uxListRemove
    tasks.o(i.xTaskRemoveFromEventList) refers to list.o(i.vListInsertEnd) for vListInsertEnd
    tasks.o(i.xTaskRemoveFromEventList) refers to port.o(.emb_text) for ulPortSetInterruptMask
    tasks.o(i.xTaskRemoveFromEventList) refers to tasks.o(.data) for .data
    tasks.o(i.xTaskRemoveFromEventList) refers to tasks.o(.bss) for .bss
    tasks.o(i.xTaskRemoveFromUnorderedEventList) refers to list.o(i.uxListRemove) for uxListRemove
    tasks.o(i.xTaskRemoveFromUnorderedEventList) refers to list.o(i.vListInsertEnd) for vListInsertEnd
    tasks.o(i.xTaskRemoveFromUnorderedEventList) refers to port.o(.emb_text) for ulPortSetInterruptMask
    tasks.o(i.xTaskRemoveFromUnorderedEventList) refers to tasks.o(.data) for .data
    tasks.o(i.xTaskRemoveFromUnorderedEventList) refers to tasks.o(.bss) for .bss
    tasks.o(i.xTaskResumeAll) refers to port.o(i.vPortEnterCritical) for vPortEnterCritical
    tasks.o(i.xTaskResumeAll) refers to port.o(.emb_text) for ulPortSetInterruptMask
    tasks.o(i.xTaskResumeAll) refers to list.o(i.uxListRemove) for uxListRemove
    tasks.o(i.xTaskResumeAll) refers to list.o(i.vListInsertEnd) for vListInsertEnd
    tasks.o(i.xTaskResumeAll) refers to tasks.o(i.xTaskIncrementTick) for xTaskIncrementTick
    tasks.o(i.xTaskResumeAll) refers to port.o(i.vPortYield) for vPortYield
    tasks.o(i.xTaskResumeAll) refers to port.o(i.vPortExitCritical) for vPortExitCritical
    tasks.o(i.xTaskResumeAll) refers to tasks.o(.data) for .data
    tasks.o(i.xTaskResumeAll) refers to tasks.o(.bss) for .bss
    tasks.o(i.xTaskResumeFromISR) refers to port.o(i.vPortValidateInterruptPriority) for vPortValidateInterruptPriority
    tasks.o(i.xTaskResumeFromISR) refers to port.o(.emb_text) for ulPortSetInterruptMask
    tasks.o(i.xTaskResumeFromISR) refers to tasks.o(i.prvTaskIsTaskSuspended) for prvTaskIsTaskSuspended
    tasks.o(i.xTaskResumeFromISR) refers to list.o(i.uxListRemove) for uxListRemove
    tasks.o(i.xTaskResumeFromISR) refers to list.o(i.vListInsertEnd) for vListInsertEnd
    tasks.o(i.xTaskResumeFromISR) refers to tasks.o(.data) for .data
    tasks.o(i.xTaskResumeFromISR) refers to tasks.o(.bss) for .bss
    cmsis_os.o(i.osDelay) refers to tasks.o(i.vTaskDelay) for vTaskDelay
    cmsis_os.o(i.osKernelRunning) refers to tasks.o(i.xTaskGetSchedulerState) for xTaskGetSchedulerState
    cmsis_os.o(i.osKernelStart) refers to tasks.o(i.vTaskStartScheduler) for vTaskStartScheduler
    cmsis_os.o(i.osKernelSysTick) refers to cmsis_os.o(i.inHandlerMode) for inHandlerMode
    cmsis_os.o(i.osKernelSysTick) refers to tasks.o(i.xTaskGetTickCountFromISR) for xTaskGetTickCountFromISR
    cmsis_os.o(i.osKernelSysTick) refers to tasks.o(i.xTaskGetTickCount) for xTaskGetTickCount
    cmsis_os.o(i.osMessageCreate) refers to queue.o(i.xQueueGenericCreate) for xQueueGenericCreate
    cmsis_os.o(i.osMessageGet) refers to cmsis_os.o(i.inHandlerMode) for inHandlerMode
    cmsis_os.o(i.osMessageGet) refers to queue.o(i.xQueueReceiveFromISR) for xQueueReceiveFromISR
    cmsis_os.o(i.osMessageGet) refers to queue.o(i.xQueueGenericReceive) for xQueueGenericReceive
    cmsis_os.o(i.osMessagePeek) refers to queue.o(i.xQueueGenericReceive) for xQueueGenericReceive
    cmsis_os.o(i.osMessagePut) refers to cmsis_os.o(i.inHandlerMode) for inHandlerMode
    cmsis_os.o(i.osMessagePut) refers to queue.o(i.xQueueGenericSendFromISR) for xQueueGenericSendFromISR
    cmsis_os.o(i.osMessagePut) refers to queue.o(i.xQueueGenericSend) for xQueueGenericSend
    cmsis_os.o(i.osMutexCreate) refers to queue.o(i.xQueueCreateMutex) for xQueueCreateMutex
    cmsis_os.o(i.osMutexDelete) refers to cmsis_os.o(i.inHandlerMode) for inHandlerMode
    cmsis_os.o(i.osMutexDelete) refers to queue.o(i.vQueueDelete) for vQueueDelete
    cmsis_os.o(i.osMutexRelease) refers to cmsis_os.o(i.inHandlerMode) for inHandlerMode
    cmsis_os.o(i.osMutexRelease) refers to queue.o(i.xQueueGenericSendFromISR) for xQueueGenericSendFromISR
    cmsis_os.o(i.osMutexRelease) refers to queue.o(i.xQueueGenericSend) for xQueueGenericSend
    cmsis_os.o(i.osMutexWait) refers to cmsis_os.o(i.inHandlerMode) for inHandlerMode
    cmsis_os.o(i.osMutexWait) refers to queue.o(i.xQueueReceiveFromISR) for xQueueReceiveFromISR
    cmsis_os.o(i.osMutexWait) refers to queue.o(i.xQueueGenericReceive) for xQueueGenericReceive
    cmsis_os.o(i.osPoolAlloc) refers to cmsis_os.o(i.inHandlerMode) for inHandlerMode
    cmsis_os.o(i.osPoolAlloc) refers to port.o(.emb_text) for ulPortSetInterruptMask
    cmsis_os.o(i.osPoolAlloc) refers to port.o(i.vPortEnterCritical) for vPortEnterCritical
    cmsis_os.o(i.osPoolAlloc) refers to port.o(i.vPortExitCritical) for vPortExitCritical
    cmsis_os.o(i.osPoolCAlloc) refers to cmsis_os.o(i.osPoolAlloc) for osPoolAlloc
    cmsis_os.o(i.osPoolCreate) refers to heap_4.o(i.pvPortMalloc) for pvPortMalloc
    cmsis_os.o(i.osPoolCreate) refers to heap_4.o(i.vPortFree) for vPortFree
    cmsis_os.o(i.osRecursiveMutexCreate) refers to queue.o(i.xQueueCreateMutex) for xQueueCreateMutex
    cmsis_os.o(i.osRecursiveMutexRelease) refers to queue.o(i.xQueueGiveMutexRecursive) for xQueueGiveMutexRecursive
    cmsis_os.o(i.osRecursiveMutexWait) refers to queue.o(i.xQueueTakeMutexRecursive) for xQueueTakeMutexRecursive
    cmsis_os.o(i.osSemaphoreCreate) refers to queue.o(i.xQueueCreateCountingSemaphore) for xQueueCreateCountingSemaphore
    cmsis_os.o(i.osSemaphoreCreate) refers to queue.o(i.xQueueGenericCreate) for xQueueGenericCreate
    cmsis_os.o(i.osSemaphoreCreate) refers to queue.o(i.xQueueGenericSend) for xQueueGenericSend
    cmsis_os.o(i.osSemaphoreDelete) refers to cmsis_os.o(i.inHandlerMode) for inHandlerMode
    cmsis_os.o(i.osSemaphoreDelete) refers to queue.o(i.vQueueDelete) for vQueueDelete
    cmsis_os.o(i.osSemaphoreRelease) refers to cmsis_os.o(i.inHandlerMode) for inHandlerMode
    cmsis_os.o(i.osSemaphoreRelease) refers to queue.o(i.xQueueGenericSendFromISR) for xQueueGenericSendFromISR
    cmsis_os.o(i.osSemaphoreRelease) refers to queue.o(i.xQueueGenericSend) for xQueueGenericSend
    cmsis_os.o(i.osSemaphoreWait) refers to cmsis_os.o(i.inHandlerMode) for inHandlerMode
    cmsis_os.o(i.osSemaphoreWait) refers to queue.o(i.xQueueReceiveFromISR) for xQueueReceiveFromISR
    cmsis_os.o(i.osSemaphoreWait) refers to queue.o(i.xQueueGenericReceive) for xQueueGenericReceive
    cmsis_os.o(i.osSystickHandler) refers to tasks.o(i.xTaskGetSchedulerState) for xTaskGetSchedulerState
    cmsis_os.o(i.osSystickHandler) refers to port.o(i.xPortSysTickHandler) for xPortSysTickHandler
    cmsis_os.o(i.osThreadCreate) refers to cmsis_os.o(i.makeFreeRtosPriority) for makeFreeRtosPriority
    cmsis_os.o(i.osThreadCreate) refers to tasks.o(i.xTaskGenericCreate) for xTaskGenericCreate
    cmsis_os.o(i.osThreadGetId) refers to tasks.o(i.xTaskGetCurrentTaskHandle) for xTaskGetCurrentTaskHandle
    cmsis_os.o(i.osThreadGetPriority) refers to tasks.o(i.uxTaskPriorityGet) for uxTaskPriorityGet
    cmsis_os.o(i.osThreadResume) refers to cmsis_os.o(i.inHandlerMode) for inHandlerMode
    cmsis_os.o(i.osThreadResume) refers to tasks.o(i.xTaskResumeFromISR) for xTaskResumeFromISR
    cmsis_os.o(i.osThreadResume) refers to tasks.o(i.vTaskResume) for vTaskResume
    cmsis_os.o(i.osThreadResumeAll) refers to tasks.o(i.xTaskResumeAll) for xTaskResumeAll
    cmsis_os.o(i.osThreadSetPriority) refers to cmsis_os.o(i.makeFreeRtosPriority) for makeFreeRtosPriority
    cmsis_os.o(i.osThreadSetPriority) refers to tasks.o(i.vTaskPrioritySet) for vTaskPrioritySet
    cmsis_os.o(i.osThreadSuspend) refers to tasks.o(i.vTaskSuspend) for vTaskSuspend
    cmsis_os.o(i.osThreadSuspendAll) refers to tasks.o(i.vTaskSuspendAll) for vTaskSuspendAll
    cmsis_os.o(i.osThreadTerminate) refers to tasks.o(i.vTaskDelete) for vTaskDelete
    cmsis_os.o(i.osThreadYield) refers to port.o(i.vPortYield) for vPortYield
    event_groups.o(i.vEventGroupClearBitsCallback) refers to event_groups.o(i.xEventGroupClearBits) for xEventGroupClearBits
    event_groups.o(i.vEventGroupDelete) refers to tasks.o(i.vTaskSuspendAll) for vTaskSuspendAll
    event_groups.o(i.vEventGroupDelete) refers to port.o(.emb_text) for ulPortSetInterruptMask
    event_groups.o(i.vEventGroupDelete) refers to tasks.o(i.xTaskRemoveFromUnorderedEventList) for xTaskRemoveFromUnorderedEventList
    event_groups.o(i.vEventGroupDelete) refers to heap_4.o(i.vPortFree) for vPortFree
    event_groups.o(i.vEventGroupDelete) refers to tasks.o(i.xTaskResumeAll) for xTaskResumeAll
    event_groups.o(i.vEventGroupSetBitsCallback) refers to event_groups.o(i.xEventGroupSetBits) for xEventGroupSetBits
    event_groups.o(i.xEventGroupClearBits) refers to port.o(.emb_text) for ulPortSetInterruptMask
    event_groups.o(i.xEventGroupClearBits) refers to port.o(i.vPortEnterCritical) for vPortEnterCritical
    event_groups.o(i.xEventGroupClearBits) refers to port.o(i.vPortExitCritical) for vPortExitCritical
    event_groups.o(i.xEventGroupCreate) refers to heap_4.o(i.pvPortMalloc) for pvPortMalloc
    event_groups.o(i.xEventGroupCreate) refers to list.o(i.vListInitialise) for vListInitialise
    event_groups.o(i.xEventGroupGetBitsFromISR) refers to port.o(.emb_text) for ulPortSetInterruptMask
    event_groups.o(i.xEventGroupSetBits) refers to port.o(.emb_text) for ulPortSetInterruptMask
    event_groups.o(i.xEventGroupSetBits) refers to tasks.o(i.vTaskSuspendAll) for vTaskSuspendAll
    event_groups.o(i.xEventGroupSetBits) refers to tasks.o(i.xTaskRemoveFromUnorderedEventList) for xTaskRemoveFromUnorderedEventList
    event_groups.o(i.xEventGroupSetBits) refers to tasks.o(i.xTaskResumeAll) for xTaskResumeAll
    event_groups.o(i.xEventGroupSync) refers to port.o(.emb_text) for ulPortSetInterruptMask
    event_groups.o(i.xEventGroupSync) refers to tasks.o(i.xTaskGetSchedulerState) for xTaskGetSchedulerState
    event_groups.o(i.xEventGroupSync) refers to tasks.o(i.vTaskSuspendAll) for vTaskSuspendAll
    event_groups.o(i.xEventGroupSync) refers to event_groups.o(i.xEventGroupSetBits) for xEventGroupSetBits
    event_groups.o(i.xEventGroupSync) refers to tasks.o(i.vTaskPlaceOnUnorderedEventList) for vTaskPlaceOnUnorderedEventList
    event_groups.o(i.xEventGroupSync) refers to tasks.o(i.xTaskResumeAll) for xTaskResumeAll
    event_groups.o(i.xEventGroupSync) refers to port.o(i.vPortYield) for vPortYield
    event_groups.o(i.xEventGroupSync) refers to tasks.o(i.uxTaskResetEventItemValue) for uxTaskResetEventItemValue
    event_groups.o(i.xEventGroupSync) refers to port.o(i.vPortEnterCritical) for vPortEnterCritical
    event_groups.o(i.xEventGroupSync) refers to port.o(i.vPortExitCritical) for vPortExitCritical
    event_groups.o(i.xEventGroupWaitBits) refers to port.o(.emb_text) for ulPortSetInterruptMask
    event_groups.o(i.xEventGroupWaitBits) refers to tasks.o(i.xTaskGetSchedulerState) for xTaskGetSchedulerState
    event_groups.o(i.xEventGroupWaitBits) refers to tasks.o(i.vTaskSuspendAll) for vTaskSuspendAll
    event_groups.o(i.xEventGroupWaitBits) refers to event_groups.o(i.prvTestWaitCondition) for prvTestWaitCondition
    event_groups.o(i.xEventGroupWaitBits) refers to tasks.o(i.vTaskPlaceOnUnorderedEventList) for vTaskPlaceOnUnorderedEventList
    event_groups.o(i.xEventGroupWaitBits) refers to tasks.o(i.xTaskResumeAll) for xTaskResumeAll
    event_groups.o(i.xEventGroupWaitBits) refers to port.o(i.vPortYield) for vPortYield
    event_groups.o(i.xEventGroupWaitBits) refers to tasks.o(i.uxTaskResetEventItemValue) for uxTaskResetEventItemValue
    event_groups.o(i.xEventGroupWaitBits) refers to port.o(i.vPortEnterCritical) for vPortEnterCritical
    event_groups.o(i.xEventGroupWaitBits) refers to port.o(i.vPortExitCritical) for vPortExitCritical
    croutine.o(i.prvCheckDelayedList) refers to tasks.o(i.xTaskGetTickCount) for xTaskGetTickCount
    croutine.o(i.prvCheckDelayedList) refers to port.o(.emb_text) for ulPortSetInterruptMask
    croutine.o(i.prvCheckDelayedList) refers to list.o(i.uxListRemove) for uxListRemove
    croutine.o(i.prvCheckDelayedList) refers to list.o(i.vListInsertEnd) for vListInsertEnd
    croutine.o(i.prvCheckDelayedList) refers to croutine.o(.data) for .data
    croutine.o(i.prvCheckDelayedList) refers to croutine.o(.bss) for .bss
    croutine.o(i.vCoRoutineAddToDelayedList) refers to list.o(i.uxListRemove) for uxListRemove
    croutine.o(i.vCoRoutineAddToDelayedList) refers to list.o(i.vListInsert) for vListInsert
    croutine.o(i.vCoRoutineAddToDelayedList) refers to croutine.o(.data) for .data
    croutine.o(i.vCoRoutineSchedule) refers to port.o(.emb_text) for ulPortSetInterruptMask
    croutine.o(i.vCoRoutineSchedule) refers to list.o(i.uxListRemove) for uxListRemove
    croutine.o(i.vCoRoutineSchedule) refers to list.o(i.vListInsertEnd) for vListInsertEnd
    croutine.o(i.vCoRoutineSchedule) refers to croutine.o(i.prvCheckDelayedList) for prvCheckDelayedList
    croutine.o(i.vCoRoutineSchedule) refers to croutine.o(.bss) for .bss
    croutine.o(i.vCoRoutineSchedule) refers to croutine.o(.data) for .data
    croutine.o(i.xCoRoutineCreate) refers to heap_4.o(i.pvPortMalloc) for pvPortMalloc
    croutine.o(i.xCoRoutineCreate) refers to list.o(i.vListInitialise) for vListInitialise
    croutine.o(i.xCoRoutineCreate) refers to list.o(i.vListInitialiseItem) for vListInitialiseItem
    croutine.o(i.xCoRoutineCreate) refers to list.o(i.vListInsertEnd) for vListInsertEnd
    croutine.o(i.xCoRoutineCreate) refers to croutine.o(.data) for .data
    croutine.o(i.xCoRoutineCreate) refers to croutine.o(.bss) for .bss
    croutine.o(i.xCoRoutineRemoveFromEventList) refers to list.o(i.uxListRemove) for uxListRemove
    croutine.o(i.xCoRoutineRemoveFromEventList) refers to list.o(i.vListInsertEnd) for vListInsertEnd
    croutine.o(i.xCoRoutineRemoveFromEventList) refers to croutine.o(.bss) for .bss
    croutine.o(i.xCoRoutineRemoveFromEventList) refers to croutine.o(.data) for .data
    heap_4.o(i.prvHeapInit) refers to heap_4.o(.bss) for .bss
    heap_4.o(i.prvHeapInit) refers to heap_4.o(.data) for .data
    heap_4.o(i.prvInsertBlockIntoFreeList) refers to heap_4.o(.data) for .data
    heap_4.o(i.pvPortMalloc) refers to tasks.o(i.vTaskSuspendAll) for vTaskSuspendAll
    heap_4.o(i.pvPortMalloc) refers to heap_4.o(i.prvHeapInit) for prvHeapInit
    heap_4.o(i.pvPortMalloc) refers to port.o(.emb_text) for ulPortSetInterruptMask
    heap_4.o(i.pvPortMalloc) refers to heap_4.o(i.prvInsertBlockIntoFreeList) for prvInsertBlockIntoFreeList
    heap_4.o(i.pvPortMalloc) refers to tasks.o(i.xTaskResumeAll) for xTaskResumeAll
    heap_4.o(i.pvPortMalloc) refers to heap_4.o(.data) for .data
    heap_4.o(i.vPortFree) refers to port.o(.emb_text) for ulPortSetInterruptMask
    heap_4.o(i.vPortFree) refers to tasks.o(i.vTaskSuspendAll) for vTaskSuspendAll
    heap_4.o(i.vPortFree) refers to heap_4.o(i.prvInsertBlockIntoFreeList) for prvInsertBlockIntoFreeList
    heap_4.o(i.vPortFree) refers to tasks.o(i.xTaskResumeAll) for xTaskResumeAll
    heap_4.o(i.vPortFree) refers to heap_4.o(.data) for .data
    heap_4.o(i.xPortGetFreeHeapSize) refers to heap_4.o(.data) for .data
    heap_4.o(i.xPortGetMinimumEverFreeHeapSize) refers to heap_4.o(.data) for .data
    queue.o(i.prvCopyDataFromQueue) refers to memcpya.o(.text) for __aeabi_memcpy
    queue.o(i.prvCopyDataToQueue) refers to memcpya.o(.text) for __aeabi_memcpy
    queue.o(i.prvCopyDataToQueue) refers to tasks.o(i.xTaskPriorityDisinherit) for xTaskPriorityDisinherit
    queue.o(i.prvUnlockQueue) refers to port.o(i.vPortEnterCritical) for vPortEnterCritical
    queue.o(i.prvUnlockQueue) refers to tasks.o(i.xTaskRemoveFromEventList) for xTaskRemoveFromEventList
    queue.o(i.prvUnlockQueue) refers to tasks.o(i.vTaskMissedYield) for vTaskMissedYield
    queue.o(i.prvUnlockQueue) refers to port.o(i.vPortExitCritical) for vPortExitCritical
    queue.o(i.uxQueueMessagesWaiting) refers to port.o(i.vPortEnterCritical) for vPortEnterCritical
    queue.o(i.uxQueueMessagesWaiting) refers to port.o(i.vPortExitCritical) for vPortExitCritical
    queue.o(i.uxQueueMessagesWaiting) refers to port.o(.emb_text) for ulPortSetInterruptMask
    queue.o(i.uxQueueMessagesWaitingFromISR) refers to port.o(.emb_text) for ulPortSetInterruptMask
    queue.o(i.uxQueueSpacesAvailable) refers to port.o(i.vPortEnterCritical) for vPortEnterCritical
    queue.o(i.uxQueueSpacesAvailable) refers to port.o(i.vPortExitCritical) for vPortExitCritical
    queue.o(i.uxQueueSpacesAvailable) refers to port.o(.emb_text) for ulPortSetInterruptMask
    queue.o(i.vQueueAddToRegistry) refers to queue.o(.bss) for .bss
    queue.o(i.vQueueDelete) refers to queue.o(i.vQueueUnregisterQueue) for vQueueUnregisterQueue
    queue.o(i.vQueueDelete) refers to heap_4.o(i.vPortFree) for vPortFree
    queue.o(i.vQueueDelete) refers to port.o(.emb_text) for ulPortSetInterruptMask
    queue.o(i.vQueueUnregisterQueue) refers to queue.o(.bss) for .bss
    queue.o(i.xQueueCreateCountingSemaphore) refers to port.o(.emb_text) for ulPortSetInterruptMask
    queue.o(i.xQueueCreateCountingSemaphore) refers to queue.o(i.xQueueGenericCreate) for xQueueGenericCreate
    queue.o(i.xQueueCreateMutex) refers to heap_4.o(i.pvPortMalloc) for pvPortMalloc
    queue.o(i.xQueueCreateMutex) refers to list.o(i.vListInitialise) for vListInitialise
    queue.o(i.xQueueCreateMutex) refers to queue.o(i.xQueueGenericSend) for xQueueGenericSend
    queue.o(i.xQueueCreateMutex) refers to port.o(.emb_text) for ulPortSetInterruptMask
    queue.o(i.xQueueGenericCreate) refers to heap_4.o(i.pvPortMalloc) for pvPortMalloc
    queue.o(i.xQueueGenericCreate) refers to queue.o(i.xQueueGenericReset) for xQueueGenericReset
    queue.o(i.xQueueGenericCreate) refers to heap_4.o(i.vPortFree) for vPortFree
    queue.o(i.xQueueGenericCreate) refers to port.o(.emb_text) for ulPortSetInterruptMask
    queue.o(i.xQueueGenericReceive) refers to port.o(.emb_text) for ulPortSetInterruptMask
    queue.o(i.xQueueGenericReceive) refers to tasks.o(i.xTaskGetSchedulerState) for xTaskGetSchedulerState
    queue.o(i.xQueueGenericReceive) refers to port.o(i.vPortEnterCritical) for vPortEnterCritical
    queue.o(i.xQueueGenericReceive) refers to queue.o(i.prvCopyDataFromQueue) for prvCopyDataFromQueue
    queue.o(i.xQueueGenericReceive) refers to tasks.o(i.xTaskRemoveFromEventList) for xTaskRemoveFromEventList
    queue.o(i.xQueueGenericReceive) refers to port.o(i.vPortYield) for vPortYield
    queue.o(i.xQueueGenericReceive) refers to port.o(i.vPortExitCritical) for vPortExitCritical
    queue.o(i.xQueueGenericReceive) refers to tasks.o(i.pvTaskIncrementMutexHeldCount) for pvTaskIncrementMutexHeldCount
    queue.o(i.xQueueGenericReceive) refers to tasks.o(i.vTaskSetTimeOutState) for vTaskSetTimeOutState
    queue.o(i.xQueueGenericReceive) refers to tasks.o(i.vTaskSuspendAll) for vTaskSuspendAll
    queue.o(i.xQueueGenericReceive) refers to tasks.o(i.xTaskCheckForTimeOut) for xTaskCheckForTimeOut
    queue.o(i.xQueueGenericReceive) refers to queue.o(i.prvUnlockQueue) for prvUnlockQueue
    queue.o(i.xQueueGenericReceive) refers to tasks.o(i.xTaskResumeAll) for xTaskResumeAll
    queue.o(i.xQueueGenericReceive) refers to tasks.o(i.vTaskPriorityInherit) for vTaskPriorityInherit
    queue.o(i.xQueueGenericReceive) refers to tasks.o(i.vTaskPlaceOnEventList) for vTaskPlaceOnEventList
    queue.o(i.xQueueGenericReset) refers to port.o(i.vPortEnterCritical) for vPortEnterCritical
    queue.o(i.xQueueGenericReset) refers to list.o(i.vListInitialise) for vListInitialise
    queue.o(i.xQueueGenericReset) refers to port.o(i.vPortExitCritical) for vPortExitCritical
    queue.o(i.xQueueGenericReset) refers to port.o(.emb_text) for ulPortSetInterruptMask
    queue.o(i.xQueueGenericReset) refers to tasks.o(i.xTaskRemoveFromEventList) for xTaskRemoveFromEventList
    queue.o(i.xQueueGenericReset) refers to port.o(i.vPortYield) for vPortYield
    queue.o(i.xQueueGenericSend) refers to port.o(.emb_text) for ulPortSetInterruptMask
    queue.o(i.xQueueGenericSend) refers to tasks.o(i.xTaskGetSchedulerState) for xTaskGetSchedulerState
    queue.o(i.xQueueGenericSend) refers to port.o(i.vPortEnterCritical) for vPortEnterCritical
    queue.o(i.xQueueGenericSend) refers to queue.o(i.prvCopyDataToQueue) for prvCopyDataToQueue
    queue.o(i.xQueueGenericSend) refers to tasks.o(i.xTaskRemoveFromEventList) for xTaskRemoveFromEventList
    queue.o(i.xQueueGenericSend) refers to port.o(i.vPortYield) for vPortYield
    queue.o(i.xQueueGenericSend) refers to port.o(i.vPortExitCritical) for vPortExitCritical
    queue.o(i.xQueueGenericSend) refers to tasks.o(i.vTaskSetTimeOutState) for vTaskSetTimeOutState
    queue.o(i.xQueueGenericSend) refers to tasks.o(i.vTaskSuspendAll) for vTaskSuspendAll
    queue.o(i.xQueueGenericSend) refers to tasks.o(i.xTaskCheckForTimeOut) for xTaskCheckForTimeOut
    queue.o(i.xQueueGenericSend) refers to queue.o(i.prvUnlockQueue) for prvUnlockQueue
    queue.o(i.xQueueGenericSend) refers to tasks.o(i.xTaskResumeAll) for xTaskResumeAll
    queue.o(i.xQueueGenericSend) refers to tasks.o(i.vTaskPlaceOnEventList) for vTaskPlaceOnEventList
    queue.o(i.xQueueGenericSendFromISR) refers to port.o(.emb_text) for ulPortSetInterruptMask
    queue.o(i.xQueueGenericSendFromISR) refers to port.o(i.vPortValidateInterruptPriority) for vPortValidateInterruptPriority
    queue.o(i.xQueueGenericSendFromISR) refers to queue.o(i.prvCopyDataToQueue) for prvCopyDataToQueue
    queue.o(i.xQueueGenericSendFromISR) refers to tasks.o(i.xTaskRemoveFromEventList) for xTaskRemoveFromEventList
    queue.o(i.xQueueGiveMutexRecursive) refers to tasks.o(i.xTaskGetCurrentTaskHandle) for xTaskGetCurrentTaskHandle
    queue.o(i.xQueueGiveMutexRecursive) refers to port.o(.emb_text) for ulPortSetInterruptMask
    queue.o(i.xQueueGiveMutexRecursive) refers to queue.o(i.xQueueGenericSend) for xQueueGenericSend
    queue.o(i.xQueueIsQueueEmptyFromISR) refers to port.o(.emb_text) for ulPortSetInterruptMask
    queue.o(i.xQueueIsQueueFullFromISR) refers to port.o(.emb_text) for ulPortSetInterruptMask
    queue.o(i.xQueuePeekFromISR) refers to port.o(.emb_text) for ulPortSetInterruptMask
    queue.o(i.xQueuePeekFromISR) refers to port.o(i.vPortValidateInterruptPriority) for vPortValidateInterruptPriority
    queue.o(i.xQueuePeekFromISR) refers to queue.o(i.prvCopyDataFromQueue) for prvCopyDataFromQueue
    queue.o(i.xQueueReceiveFromISR) refers to port.o(.emb_text) for ulPortSetInterruptMask
    queue.o(i.xQueueReceiveFromISR) refers to port.o(i.vPortValidateInterruptPriority) for vPortValidateInterruptPriority
    queue.o(i.xQueueReceiveFromISR) refers to queue.o(i.prvCopyDataFromQueue) for prvCopyDataFromQueue
    queue.o(i.xQueueReceiveFromISR) refers to tasks.o(i.xTaskRemoveFromEventList) for xTaskRemoveFromEventList
    queue.o(i.xQueueTakeMutexRecursive) refers to tasks.o(i.xTaskGetCurrentTaskHandle) for xTaskGetCurrentTaskHandle
    queue.o(i.xQueueTakeMutexRecursive) refers to port.o(.emb_text) for ulPortSetInterruptMask
    queue.o(i.xQueueTakeMutexRecursive) refers to queue.o(i.xQueueGenericReceive) for xQueueGenericReceive
    system_stm32f4xx.o(i.SystemCoreClockUpdate) refers to system_stm32f4xx.o(.data) for .data
    main.o(i.MX_ADC1_Init) refers to stm32f4xx_hal_adc.o(i.HAL_ADC_Init) for HAL_ADC_Init
    main.o(i.MX_ADC1_Init) refers to stm32f4xx_hal_adc.o(i.HAL_ADC_ConfigChannel) for HAL_ADC_ConfigChannel
    main.o(i.MX_ADC1_Init) refers to main.o(.bss) for .bss
    main.o(i.MX_CAN1_Init) refers to stm32f4xx_hal_can.o(i.HAL_CAN_Init) for HAL_CAN_Init
    main.o(i.MX_CAN1_Init) refers to stm32f4xx_hal_can.o(i.HAL_CAN_ConfigFilter) for HAL_CAN_ConfigFilter
    main.o(i.MX_CAN1_Init) refers to stm32f4xx_hal_cortex.o(i.HAL_NVIC_EnableIRQ) for HAL_NVIC_EnableIRQ
    main.o(i.MX_CAN1_Init) refers to stm32f4xx_hal_can.o(i.HAL_CAN_Receive_IT) for HAL_CAN_Receive_IT
    main.o(i.MX_CAN1_Init) refers to main.o(.bss) for .bss
    main.o(i.MX_CAN2_Init) refers to stm32f4xx_hal_can.o(i.HAL_CAN_Init) for HAL_CAN_Init
    main.o(i.MX_CAN2_Init) refers to main.o(.bss) for .bss
    main.o(i.MX_GPIO_Init) refers to stm32f4xx_hal_gpio.o(i.HAL_GPIO_Init) for HAL_GPIO_Init
    main.o(i.StartDefaultTask) refers to usb_host.o(i.MX_USB_HOST_Init) for MX_USB_HOST_Init
    main.o(i.StartDefaultTask) refers to cmsis_os.o(i.osDelay) for osDelay
    main.o(i.SystemClock_Config) refers to stm32f4xx_hal_rcc.o(i.HAL_RCC_OscConfig) for HAL_RCC_OscConfig
    main.o(i.SystemClock_Config) refers to stm32f4xx_hal_rcc.o(i.HAL_RCC_ClockConfig) for HAL_RCC_ClockConfig
    main.o(i.main) refers to stm32f4xx_hal.o(i.HAL_Init) for HAL_Init
    main.o(i.main) refers to main.o(i.SystemClock_Config) for SystemClock_Config
    main.o(i.main) refers to main.o(i.MX_GPIO_Init) for MX_GPIO_Init
    main.o(i.main) refers to main.o(i.MX_ADC1_Init) for MX_ADC1_Init
    main.o(i.main) refers to main.o(i.MX_CAN1_Init) for MX_CAN1_Init
    main.o(i.main) refers to main.o(i.MX_CAN2_Init) for MX_CAN2_Init
    main.o(i.main) refers to usb_host.o(i.MX_USB_HOST_Init) for MX_USB_HOST_Init
    main.o(i.main) refers to memcpya.o(.text) for __aeabi_memcpy4
    main.o(i.main) refers to cmsis_os.o(i.osThreadCreate) for osThreadCreate
    main.o(i.main) refers to tasks.o(i.xTaskGenericCreate) for xTaskGenericCreate
    main.o(i.main) refers to cmsis_os.o(i.osKernelStart) for osKernelStart
    main.o(i.main) refers to main.o(.constdata) for .constdata
    main.o(i.main) refers to main.o(.data) for .data
    main.o(i.main) refers to main.o(i.vTask_ControlLamps) for vTask_ControlLamps
    main.o(i.vTask_ControlLamps) refers to stm32f4xx_hal_gpio.o(i.HAL_GPIO_WritePin) for HAL_GPIO_WritePin
    main.o(i.vTask_ControlLamps) refers to main.o(.bss) for .bss
    main.o(.constdata) refers to main.o(.conststring) for .conststring
    main.o(.constdata) refers to main.o(i.StartDefaultTask) for StartDefaultTask
    usb_host.o(i.MX_USB_HOST_Init) refers to usbh_core.o(i.USBH_Init) for USBH_Init
    usb_host.o(i.MX_USB_HOST_Init) refers to usbh_core.o(i.USBH_RegisterClass) for USBH_RegisterClass
    usb_host.o(i.MX_USB_HOST_Init) refers to usbh_core.o(i.USBH_Start) for USBH_Start
    usb_host.o(i.MX_USB_HOST_Init) refers to usb_host.o(i.USBH_UserProcess) for USBH_UserProcess
    usb_host.o(i.MX_USB_HOST_Init) refers to usb_host.o(.bss) for .bss
    usb_host.o(i.MX_USB_HOST_Init) refers to usbh_audio.o(.data) for AUDIO_Class
    usb_host.o(i.MX_USB_HOST_Init) refers to usbh_cdc.o(.data) for CDC_Class
    usb_host.o(i.MX_USB_HOST_Init) refers to usbh_msc.o(.data) for USBH_msc
    usb_host.o(i.MX_USB_HOST_Init) refers to usbh_hid.o(.data) for HID_Class
    usb_host.o(i.MX_USB_HOST_Init) refers to usbh_mtp.o(.data) for MTP_Class
    usb_host.o(i.MX_USB_HOST_Process) refers to usbh_core.o(i.USBH_Process) for USBH_Process
    usb_host.o(i.MX_USB_HOST_Process) refers to usb_host.o(.bss) for .bss
    usb_host.o(i.USBH_UserProcess) refers to usb_host.o(.data) for .data
    stm32f4xx_hal_msp.o(i.HAL_ADC_MspDeInit) refers to stm32f4xx_hal_gpio.o(i.HAL_GPIO_DeInit) for HAL_GPIO_DeInit
    stm32f4xx_hal_msp.o(i.HAL_ADC_MspInit) refers to stm32f4xx_hal_gpio.o(i.HAL_GPIO_Init) for HAL_GPIO_Init
    stm32f4xx_hal_msp.o(i.HAL_CAN_MspDeInit) refers to stm32f4xx_hal_gpio.o(i.HAL_GPIO_DeInit) for HAL_GPIO_DeInit
    stm32f4xx_hal_msp.o(i.HAL_CAN_MspInit) refers to stm32f4xx_hal_gpio.o(i.HAL_GPIO_Init) for HAL_GPIO_Init
    stm32f4xx_hal_msp.o(i.HAL_MspInit) refers to stm32f4xx_hal_cortex.o(i.HAL_NVIC_SetPriorityGrouping) for HAL_NVIC_SetPriorityGrouping
    stm32f4xx_hal_msp.o(i.HAL_MspInit) refers to stm32f4xx_hal_cortex.o(i.HAL_NVIC_SetPriority) for HAL_NVIC_SetPriority
    stm32f4xx_it.o(i.CAN1_RX0_IRQHandler) refers to main.o(.bss) for hcan1
    stm32f4xx_it.o(i.OTG_FS_IRQHandler) refers to stm32f4xx_hal_hcd.o(i.HAL_HCD_IRQHandler) for HAL_HCD_IRQHandler
    stm32f4xx_it.o(i.OTG_FS_IRQHandler) refers to usbh_conf.o(.bss) for hhcd_USB_OTG_FS
    stm32f4xx_it.o(i.SysTick_Handler) refers to stm32f4xx_hal.o(i.HAL_IncTick) for HAL_IncTick
    stm32f4xx_it.o(i.SysTick_Handler) refers to cmsis_os.o(i.osSystickHandler) for osSystickHandler
    usbh_conf.o(i.HAL_HCD_Connect_Callback) refers to usbh_core.o(i.USBH_LL_Connect) for USBH_LL_Connect
    usbh_conf.o(i.HAL_HCD_Disconnect_Callback) refers to usbh_core.o(i.USBH_LL_Disconnect) for USBH_LL_Disconnect
    usbh_conf.o(i.HAL_HCD_HC_NotifyURBChange_Callback) refers to usbh_core.o(i.USBH_LL_NotifyURBChange) for USBH_LL_NotifyURBChange
    usbh_conf.o(i.HAL_HCD_MspDeInit) refers to stm32f4xx_hal_gpio.o(i.HAL_GPIO_DeInit) for HAL_GPIO_DeInit
    usbh_conf.o(i.HAL_HCD_MspDeInit) refers to stm32f4xx_hal_cortex.o(i.HAL_NVIC_DisableIRQ) for HAL_NVIC_DisableIRQ
    usbh_conf.o(i.HAL_HCD_MspInit) refers to stm32f4xx_hal_gpio.o(i.HAL_GPIO_Init) for HAL_GPIO_Init
    usbh_conf.o(i.HAL_HCD_MspInit) refers to stm32f4xx_hal_cortex.o(i.HAL_NVIC_SetPriority) for HAL_NVIC_SetPriority
    usbh_conf.o(i.HAL_HCD_MspInit) refers to stm32f4xx_hal_cortex.o(i.HAL_NVIC_EnableIRQ) for HAL_NVIC_EnableIRQ
    usbh_conf.o(i.HAL_HCD_SOF_Callback) refers to usbh_core.o(i.USBH_LL_IncTimer) for USBH_LL_IncTimer
    usbh_conf.o(i.USBH_Delay) refers to stm32f4xx_hal.o(i.HAL_Delay) for HAL_Delay
    usbh_conf.o(i.USBH_LL_ClosePipe) refers to stm32f4xx_hal_hcd.o(i.HAL_HCD_HC_Halt) for HAL_HCD_HC_Halt
    usbh_conf.o(i.USBH_LL_DeInit) refers to stm32f4xx_hal_hcd.o(i.HAL_HCD_DeInit) for HAL_HCD_DeInit
    usbh_conf.o(i.USBH_LL_DriverVBUS) refers to stm32f4xx_hal.o(i.HAL_Delay) for HAL_Delay
    usbh_conf.o(i.USBH_LL_GetLastXferSize) refers to stm32f4xx_hal_hcd.o(i.HAL_HCD_HC_GetXferCount) for HAL_HCD_HC_GetXferCount
    usbh_conf.o(i.USBH_LL_GetSpeed) refers to stm32f4xx_hal_hcd.o(i.HAL_HCD_GetCurrentSpeed) for HAL_HCD_GetCurrentSpeed
    usbh_conf.o(i.USBH_LL_GetURBState) refers to stm32f4xx_hal_hcd.o(i.HAL_HCD_HC_GetURBState) for HAL_HCD_HC_GetURBState
    usbh_conf.o(i.USBH_LL_Init) refers to stm32f4xx_hal_hcd.o(i.HAL_HCD_Init) for HAL_HCD_Init
    usbh_conf.o(i.USBH_LL_Init) refers to stm32f4xx_hal_hcd.o(i.HAL_HCD_GetCurrentFrame) for HAL_HCD_GetCurrentFrame
    usbh_conf.o(i.USBH_LL_Init) refers to usbh_core.o(i.USBH_LL_SetTimer) for USBH_LL_SetTimer
    usbh_conf.o(i.USBH_LL_Init) refers to usbh_conf.o(.bss) for .bss
    usbh_conf.o(i.USBH_LL_OpenPipe) refers to stm32f4xx_hal_hcd.o(i.HAL_HCD_HC_Init) for HAL_HCD_HC_Init
    usbh_conf.o(i.USBH_LL_ResetPort) refers to stm32f4xx_hal_hcd.o(i.HAL_HCD_ResetPort) for HAL_HCD_ResetPort
    usbh_conf.o(i.USBH_LL_Start) refers to stm32f4xx_hal_hcd.o(i.HAL_HCD_Start) for HAL_HCD_Start
    usbh_conf.o(i.USBH_LL_Stop) refers to stm32f4xx_hal_hcd.o(i.HAL_HCD_Stop) for HAL_HCD_Stop
    usbh_conf.o(i.USBH_LL_SubmitURB) refers to stm32f4xx_hal_hcd.o(i.HAL_HCD_HC_SubmitRequest) for HAL_HCD_HC_SubmitRequest
    entry.o(.ARM.Collect$$$$00000000) refers (Special) to entry10a.o(.ARM.Collect$$$$0000000D) for __rt_final_cpp
    entry.o(.ARM.Collect$$$$00000000) refers (Special) to entry11a.o(.ARM.Collect$$$$0000000F) for __rt_final_exit
    entry.o(.ARM.Collect$$$$00000000) refers (Special) to entry7b.o(.ARM.Collect$$$$00000008) for _main_clock
    entry.o(.ARM.Collect$$$$00000000) refers (Special) to entry8b.o(.ARM.Collect$$$$0000000A) for _main_cpp_init
    entry.o(.ARM.Collect$$$$00000000) refers (Special) to entry9a.o(.ARM.Collect$$$$0000000B) for _main_init
    entry.o(.ARM.Collect$$$$00000000) refers (Special) to entry5.o(.ARM.Collect$$$$00000004) for _main_scatterload
    entry.o(.ARM.Collect$$$$00000000) refers (Special) to entry2.o(.ARM.Collect$$$$00000001) for _main_stk
    malloc.o(i.free) refers to mvars.o(.data) for __microlib_freelist
    malloc.o(i.malloc) refers to mvars.o(.data) for __microlib_freelist_initialised
    malloc.o(i.malloc) refers to mvars.o(.data) for __microlib_freelist
    malloc.o(i.malloc) refers to startup_stm32f407xx.o(HEAP) for __heap_base
    mallocr.o(i.__free$realloc) refers to mvars.o(.data) for __microlib_freelist
    mallocr.o(i.__malloc$realloc) refers to mallocr.o(i.internal_alloc) for internal_alloc
    mallocr.o(i.__malloc$realloc) refers to mvars.o(.data) for __microlib_freelist_initialised
    mallocr.o(i.__malloc$realloc) refers to startup_stm32f407xx.o(HEAP) for __heap_base
    mallocr.o(i.__malloc$realloc) refers to mvars.o(.data) for __microlib_freelist
    mallocr.o(i.internal_alloc) refers to memcpya.o(.text) for __aeabi_memcpy
    mallocr.o(i.internal_alloc) refers to mvars.o(.data) for __microlib_freelist
    mallocr.o(i.realloc) refers to mallocr.o(i.__free$realloc) for __free$realloc
    mallocr.o(i.realloc) refers to mallocr.o(i.internal_alloc) for internal_alloc
    mallocr.o(i.realloc) refers to mallocr.o(i.__malloc$realloc) for __malloc$realloc
    mallocr.o(i.realloc) refers to mvars.o(.data) for __microlib_freelist
    malloca.o(i.__aligned_malloc) refers to mvars.o(.data) for __microlib_freelist_initialised
    malloca.o(i.__aligned_malloc) refers to mvars.o(.data) for __microlib_freelist
    malloca.o(i.__aligned_malloc) refers to startup_stm32f407xx.o(HEAP) for __heap_base
    malloca.o(i.__free$memalign) refers to mvars.o(.data) for __microlib_freelist
    malloca.o(i.__malloc$memalign) refers to malloca.o(i.__aligned_malloc) for __aligned_malloc
    mallocra.o(i.__aligned_malloc$realloc) refers to mallocra.o(i.internal_alloc) for internal_alloc
    mallocra.o(i.__aligned_malloc$realloc) refers to mvars.o(.data) for __microlib_freelist_initialised
    mallocra.o(i.__aligned_malloc$realloc) refers to startup_stm32f407xx.o(HEAP) for __heap_base
    mallocra.o(i.__aligned_malloc$realloc) refers to mvars.o(.data) for __microlib_freelist
    mallocra.o(i.__free$realloc$memalign) refers to mvars.o(.data) for __microlib_freelist
    mallocra.o(i.__malloc$realloc$memalign) refers to mallocra.o(i.__aligned_malloc$realloc) for __aligned_malloc$realloc
    mallocra.o(i.__realloc$memalign) refers to mallocra.o(i.__free$realloc$memalign) for __free$realloc$memalign
    mallocra.o(i.__realloc$memalign) refers to mallocra.o(i.internal_alloc) for internal_alloc
    mallocra.o(i.__realloc$memalign) refers to mallocra.o(i.__malloc$realloc$memalign) for __malloc$realloc$memalign
    mallocra.o(i.__realloc$memalign) refers to mvars.o(.data) for __microlib_freelist
    mallocra.o(i.internal_alloc) refers to memcpya.o(.text) for __aeabi_memcpy
    mallocra.o(i.internal_alloc) refers to mvars.o(.data) for __microlib_freelist
    entry2.o(.ARM.Collect$$$$00000001) refers to entry2.o(.ARM.Collect$$$$00002712) for __lit__00000000
    entry2.o(.ARM.Collect$$$$00002712) refers to startup_stm32f407xx.o(STACK) for __initial_sp
    entry2.o(__vectab_stack_and_reset_area) refers to startup_stm32f407xx.o(STACK) for __initial_sp
    entry2.o(__vectab_stack_and_reset_area) refers to entry.o(.ARM.Collect$$$$00000000) for __main
    entry5.o(.ARM.Collect$$$$00000004) refers to init.o(.text) for __scatterload
    entry9a.o(.ARM.Collect$$$$0000000B) refers to main.o(i.main) for main
    entry9b.o(.ARM.Collect$$$$0000000C) refers to main.o(i.main) for main
    init.o(.text) refers to entry5.o(.ARM.Collect$$$$00000004) for __main_after_scatterload


==============================================================================

Removing Unused input sections from the image.

    Removing usbh_msc_bot.o(.rev16_text), (4 bytes).
    Removing usbh_msc_bot.o(.revsh_text), (4 bytes).
    Removing usbh_msc_bot.o(.rrx_text), (6 bytes).
    Removing usbh_hid.o(.rev16_text), (4 bytes).
    Removing usbh_hid.o(.revsh_text), (4 bytes).
    Removing usbh_hid.o(.rrx_text), (6 bytes).
    Removing usbh_hid.o(i.USBH_HID_GetDeviceType), (46 bytes).
    Removing usbh_hid.o(i.USBH_HID_GetPollInterval), (44 bytes).
    Removing usbh_hid.o(i.USBH_HID_SetReport), (34 bytes).
    Removing usbh_hid.o(i.fifo_read), (68 bytes).
    Removing usbh_msc_scsi.o(.rev16_text), (4 bytes).
    Removing usbh_msc_scsi.o(.revsh_text), (4 bytes).
    Removing usbh_msc_scsi.o(.rrx_text), (6 bytes).
    Removing usbh_msc_scsi.o(i.USBH_MSC_SCSI_Read), (124 bytes).
    Removing usbh_msc_scsi.o(i.USBH_MSC_SCSI_Write), (124 bytes).
    Removing usbh_pipes.o(.rev16_text), (4 bytes).
    Removing usbh_pipes.o(.revsh_text), (4 bytes).
    Removing usbh_pipes.o(.rrx_text), (6 bytes).
    Removing usbh_hid_parser.o(.rev16_text), (4 bytes).
    Removing usbh_hid_parser.o(.revsh_text), (4 bytes).
    Removing usbh_hid_parser.o(.rrx_text), (6 bytes).
    Removing usbh_hid_parser.o(i.HID_ReadItem), (130 bytes).
    Removing usbh_hid_parser.o(i.HID_WriteItem), (108 bytes).
    Removing usbh_ioreq.o(.rev16_text), (4 bytes).
    Removing usbh_ioreq.o(.revsh_text), (4 bytes).
    Removing usbh_ioreq.o(.rrx_text), (6 bytes).
    Removing usbh_ioreq.o(i.USBH_InterruptSendData), (32 bytes).
    Removing usbh_ioreq.o(i.USBH_IsocReceiveData), (34 bytes).
    Removing usbh_hid_mouse.o(.rev16_text), (4 bytes).
    Removing usbh_hid_mouse.o(.revsh_text), (4 bytes).
    Removing usbh_hid_mouse.o(.rrx_text), (6 bytes).
    Removing usbh_hid_mouse.o(i.USBH_HID_GetMouseInfo), (20 bytes).
    Removing usbh_hid_mouse.o(i.USBH_HID_MouseDecode), (108 bytes).
    Removing usbh_hid_mouse.o(.constdata), (160 bytes).
    Removing usbh_mtp.o(.rev16_text), (4 bytes).
    Removing usbh_mtp.o(.revsh_text), (4 bytes).
    Removing usbh_mtp.o(.rrx_text), (6 bytes).
    Removing usbh_mtp.o(i.USBH_MTP_DeleteObject), (78 bytes).
    Removing usbh_mtp.o(i.USBH_MTP_GetDevicePropDesc), (78 bytes).
    Removing usbh_mtp.o(i.USBH_MTP_GetNumObjects), (98 bytes).
    Removing usbh_mtp.o(i.USBH_MTP_GetNumStorage), (30 bytes).
    Removing usbh_mtp.o(i.USBH_MTP_GetObject), (78 bytes).
    Removing usbh_mtp.o(i.USBH_MTP_GetObjectHandles), (98 bytes).
    Removing usbh_mtp.o(i.USBH_MTP_GetObjectInfo), (78 bytes).
    Removing usbh_mtp.o(i.USBH_MTP_GetObjectPropDesc), (80 bytes).
    Removing usbh_mtp.o(i.USBH_MTP_GetObjectPropList), (80 bytes).
    Removing usbh_mtp.o(i.USBH_MTP_GetObjectPropsSupported), (80 bytes).
    Removing usbh_mtp.o(i.USBH_MTP_GetPartialObject), (88 bytes).
    Removing usbh_mtp.o(i.USBH_MTP_GetStorageInfo), (56 bytes).
    Removing usbh_mtp.o(i.USBH_MTP_IsReady), (16 bytes).
    Removing usbh_mtp.o(i.USBH_MTP_SelectStorage), (48 bytes).
    Removing usbh_mtp.o(i.USBH_MTP_SendObject), (80 bytes).
    Removing usbh_cdc.o(.rev16_text), (4 bytes).
    Removing usbh_cdc.o(.revsh_text), (4 bytes).
    Removing usbh_cdc.o(.rrx_text), (6 bytes).
    Removing usbh_cdc.o(i.USBH_CDC_GetLastReceivedDataSize), (28 bytes).
    Removing usbh_cdc.o(i.USBH_CDC_GetLineCoding), (34 bytes).
    Removing usbh_cdc.o(i.USBH_CDC_Receive), (52 bytes).
    Removing usbh_cdc.o(i.USBH_CDC_SetLineCoding), (38 bytes).
    Removing usbh_cdc.o(i.USBH_CDC_Stop), (50 bytes).
    Removing usbh_cdc.o(i.USBH_CDC_Transmit), (54 bytes).
    Removing usbh_msc.o(.rev16_text), (4 bytes).
    Removing usbh_msc.o(.revsh_text), (4 bytes).
    Removing usbh_msc.o(.rrx_text), (6 bytes).
    Removing usbh_msc.o(i.USBH_MSC_GetLUNInfo), (46 bytes).
    Removing usbh_msc.o(i.USBH_MSC_GetMaxLUN), (30 bytes).
    Removing usbh_msc.o(i.USBH_MSC_IsReady), (22 bytes).
    Removing usbh_msc.o(i.USBH_MSC_RdWrProcess), (164 bytes).
    Removing usbh_msc.o(i.USBH_MSC_Read), (136 bytes).
    Removing usbh_msc.o(i.USBH_MSC_UnitIsReady), (38 bytes).
    Removing usbh_msc.o(i.USBH_MSC_Write), (136 bytes).
    Removing usbh_hid_keybd.o(.rev16_text), (4 bytes).
    Removing usbh_hid_keybd.o(.revsh_text), (4 bytes).
    Removing usbh_hid_keybd.o(.rrx_text), (6 bytes).
    Removing usbh_hid_keybd.o(i.USBH_HID_GetASCIICode), (36 bytes).
    Removing usbh_hid_keybd.o(i.USBH_HID_GetKeybdInfo), (20 bytes).
    Removing usbh_hid_keybd.o(i.USBH_HID_KeybdDecode), (176 bytes).
    Removing usbh_hid_keybd.o(.constdata), (780 bytes).
    Removing usbh_core.o(.rev16_text), (4 bytes).
    Removing usbh_core.o(.revsh_text), (4 bytes).
    Removing usbh_core.o(.rrx_text), (6 bytes).
    Removing usbh_core.o(i.USBH_DeInit), (32 bytes).
    Removing usbh_core.o(i.USBH_GetActiveClass), (6 bytes).
    Removing usbh_core.o(i.USBH_ReEnumerate), (42 bytes).
    Removing usbh_core.o(i.USBH_Stop), (36 bytes).
    Removing usbh_ctlreq.o(.rev16_text), (4 bytes).
    Removing usbh_ctlreq.o(.revsh_text), (4 bytes).
    Removing usbh_ctlreq.o(.rrx_text), (6 bytes).
    Removing usbh_mtp_ptp.o(.rev16_text), (4 bytes).
    Removing usbh_mtp_ptp.o(.revsh_text), (4 bytes).
    Removing usbh_mtp_ptp.o(.rrx_text), (6 bytes).
    Removing usbh_mtp_ptp.o(i.PTP_GetDevicePropValue), (384 bytes).
    Removing usbh_mtp_ptp.o(i.PTP_GetObjectInfo), (338 bytes).
    Removing usbh_mtp_ptp.o(i.PTP_GetObjectPropDesc), (238 bytes).
    Removing usbh_mtp_ptp.o(i.PTP_GetObjectPropList), (172 bytes).
    Removing usbh_mtp_ptp.o(i.USBH_PTP_DeleteObject), (122 bytes).
    Removing usbh_mtp_ptp.o(i.USBH_PTP_GetDevicePropDesc), (188 bytes).
    Removing usbh_mtp_ptp.o(i.USBH_PTP_GetNumObjects), (150 bytes).
    Removing usbh_mtp_ptp.o(i.USBH_PTP_GetObject), (184 bytes).
    Removing usbh_mtp_ptp.o(i.USBH_PTP_GetObjectHandles), (176 bytes).
    Removing usbh_mtp_ptp.o(i.USBH_PTP_GetObjectInfo), (162 bytes).
    Removing usbh_mtp_ptp.o(i.USBH_PTP_GetObjectPropDesc), (170 bytes).
    Removing usbh_mtp_ptp.o(i.USBH_PTP_GetObjectPropList), (204 bytes).
    Removing usbh_mtp_ptp.o(i.USBH_PTP_GetObjectPropsSupported), (174 bytes).
    Removing usbh_mtp_ptp.o(i.USBH_PTP_GetPartialObject), (200 bytes).
    Removing usbh_mtp_ptp.o(i.USBH_PTP_SendObject), (150 bytes).
    Removing usbh_audio.o(.rev16_text), (4 bytes).
    Removing usbh_audio.o(.revsh_text), (4 bytes).
    Removing usbh_audio.o(.rrx_text), (6 bytes).
    Removing usbh_audio.o(i.USBH_AUDIO_ChangeOutBuffer), (48 bytes).
    Removing usbh_audio.o(i.USBH_AUDIO_GetOutOffset), (30 bytes).
    Removing usbh_audio.o(i.USBH_AUDIO_Play), (58 bytes).
    Removing usbh_audio.o(i.USBH_AUDIO_Resume), (32 bytes).
    Removing usbh_audio.o(i.USBH_AUDIO_SetFrequency), (178 bytes).
    Removing usbh_audio.o(i.USBH_AUDIO_SetVolume), (46 bytes).
    Removing usbh_audio.o(i.USBH_AUDIO_Stop), (4 bytes).
    Removing usbh_audio.o(i.USBH_AUDIO_Suspend), (34 bytes).
    Removing stm32f4xx_hal.o(.rev16_text), (4 bytes).
    Removing stm32f4xx_hal.o(.revsh_text), (4 bytes).
    Removing stm32f4xx_hal.o(.rrx_text), (6 bytes).
    Removing stm32f4xx_hal.o(i.HAL_DBGMCU_DisableDBGSleepMode), (16 bytes).
    Removing stm32f4xx_hal.o(i.HAL_DBGMCU_DisableDBGStandbyMode), (16 bytes).
    Removing stm32f4xx_hal.o(i.HAL_DBGMCU_DisableDBGStopMode), (16 bytes).
    Removing stm32f4xx_hal.o(i.HAL_DBGMCU_EnableDBGSleepMode), (16 bytes).
    Removing stm32f4xx_hal.o(i.HAL_DBGMCU_EnableDBGStandbyMode), (16 bytes).
    Removing stm32f4xx_hal.o(i.HAL_DBGMCU_EnableDBGStopMode), (16 bytes).
    Removing stm32f4xx_hal.o(i.HAL_DeInit), (52 bytes).
    Removing stm32f4xx_hal.o(i.HAL_DisableCompensationCell), (28 bytes).
    Removing stm32f4xx_hal.o(i.HAL_EnableCompensationCell), (28 bytes).
    Removing stm32f4xx_hal.o(i.HAL_GetDEVID), (16 bytes).
    Removing stm32f4xx_hal.o(i.HAL_GetHalVersion), (8 bytes).
    Removing stm32f4xx_hal.o(i.HAL_GetREVID), (12 bytes).
    Removing stm32f4xx_hal.o(i.HAL_MspDeInit), (2 bytes).
    Removing stm32f4xx_hal.o(i.HAL_MspInit), (2 bytes).
    Removing stm32f4xx_hal.o(i.HAL_ResumeTick), (14 bytes).
    Removing stm32f4xx_hal.o(i.HAL_SuspendTick), (14 bytes).
    Removing stm32f4xx_hal_pwr.o(.rev16_text), (4 bytes).
    Removing stm32f4xx_hal_pwr.o(.revsh_text), (4 bytes).
    Removing stm32f4xx_hal_pwr.o(.rrx_text), (6 bytes).
    Removing stm32f4xx_hal_pwr.o(i.HAL_PWR_ConfigPVD), (124 bytes).
    Removing stm32f4xx_hal_pwr.o(i.HAL_PWR_DeInit), (24 bytes).
    Removing stm32f4xx_hal_pwr.o(i.HAL_PWR_DisableBkUpAccess), (28 bytes).
    Removing stm32f4xx_hal_pwr.o(i.HAL_PWR_DisablePVD), (24 bytes).
    Removing stm32f4xx_hal_pwr.o(i.HAL_PWR_DisableSEVOnPend), (16 bytes).
    Removing stm32f4xx_hal_pwr.o(i.HAL_PWR_DisableSleepOnExit), (16 bytes).
    Removing stm32f4xx_hal_pwr.o(i.HAL_PWR_DisableWakeUpPin), (16 bytes).
    Removing stm32f4xx_hal_pwr.o(i.HAL_PWR_EnableBkUpAccess), (24 bytes).
    Removing stm32f4xx_hal_pwr.o(i.HAL_PWR_EnablePVD), (24 bytes).
    Removing stm32f4xx_hal_pwr.o(i.HAL_PWR_EnableSEVOnPend), (16 bytes).
    Removing stm32f4xx_hal_pwr.o(i.HAL_PWR_EnableSleepOnExit), (16 bytes).
    Removing stm32f4xx_hal_pwr.o(i.HAL_PWR_EnableWakeUpPin), (16 bytes).
    Removing stm32f4xx_hal_pwr.o(i.HAL_PWR_EnterSLEEPMode), (32 bytes).
    Removing stm32f4xx_hal_pwr.o(i.HAL_PWR_EnterSTANDBYMode), (32 bytes).
    Removing stm32f4xx_hal_pwr.o(i.HAL_PWR_EnterSTOPMode), (56 bytes).
    Removing stm32f4xx_hal_pwr.o(i.HAL_PWR_PVDCallback), (2 bytes).
    Removing stm32f4xx_hal_pwr.o(i.HAL_PWR_PVD_IRQHandler), (28 bytes).
    Removing stm32f4xx_hal_flash_ramfunc.o(.rev16_text), (4 bytes).
    Removing stm32f4xx_hal_flash_ramfunc.o(.revsh_text), (4 bytes).
    Removing stm32f4xx_hal_flash_ramfunc.o(.rrx_text), (6 bytes).
    Removing stm32f4xx_hal_flash_ex.o(.rev16_text), (4 bytes).
    Removing stm32f4xx_hal_flash_ex.o(.revsh_text), (4 bytes).
    Removing stm32f4xx_hal_flash_ex.o(.rrx_text), (6 bytes).
    Removing stm32f4xx_hal_flash_ex.o(i.FLASH_Erase_Sector), (88 bytes).
    Removing stm32f4xx_hal_flash_ex.o(i.FLASH_MassErase), (36 bytes).
    Removing stm32f4xx_hal_flash_ex.o(i.HAL_FLASHEx_Erase), (148 bytes).
    Removing stm32f4xx_hal_flash_ex.o(i.HAL_FLASHEx_Erase_IT), (104 bytes).
    Removing stm32f4xx_hal_flash_ex.o(i.HAL_FLASHEx_OBGetConfig), (52 bytes).
    Removing stm32f4xx_hal_flash_ex.o(i.HAL_FLASHEx_OBProgram), (204 bytes).
    Removing stm32f4xx_hal_rcc_ex.o(.rev16_text), (4 bytes).
    Removing stm32f4xx_hal_rcc_ex.o(.revsh_text), (4 bytes).
    Removing stm32f4xx_hal_rcc_ex.o(.rrx_text), (6 bytes).
    Removing stm32f4xx_hal_rcc_ex.o(i.HAL_RCCEx_GetPeriphCLKConfig), (80 bytes).
    Removing stm32f4xx_hal_rcc_ex.o(i.HAL_RCCEx_PeriphCLKConfig), (336 bytes).
    Removing stm32f4xx_hal_gpio.o(.rev16_text), (4 bytes).
    Removing stm32f4xx_hal_gpio.o(.revsh_text), (4 bytes).
    Removing stm32f4xx_hal_gpio.o(.rrx_text), (6 bytes).
    Removing stm32f4xx_hal_gpio.o(i.HAL_GPIO_DeInit), (352 bytes).
    Removing stm32f4xx_hal_gpio.o(i.HAL_GPIO_EXTI_Callback), (2 bytes).
    Removing stm32f4xx_hal_gpio.o(i.HAL_GPIO_EXTI_IRQHandler), (24 bytes).
    Removing stm32f4xx_hal_gpio.o(i.HAL_GPIO_LockPin), (34 bytes).
    Removing stm32f4xx_hal_gpio.o(i.HAL_GPIO_ReadPin), (10 bytes).
    Removing stm32f4xx_hal_gpio.o(i.HAL_GPIO_TogglePin), (8 bytes).
    Removing stm32f4xx_hal_cortex.o(.rev16_text), (4 bytes).
    Removing stm32f4xx_hal_cortex.o(.revsh_text), (4 bytes).
    Removing stm32f4xx_hal_cortex.o(.rrx_text), (6 bytes).
    Removing stm32f4xx_hal_cortex.o(i.HAL_NVIC_ClearPendingIRQ), (22 bytes).
    Removing stm32f4xx_hal_cortex.o(i.HAL_NVIC_DisableIRQ), (22 bytes).
    Removing stm32f4xx_hal_cortex.o(i.HAL_NVIC_GetActive), (32 bytes).
    Removing stm32f4xx_hal_cortex.o(i.HAL_NVIC_GetPendingIRQ), (32 bytes).
    Removing stm32f4xx_hal_cortex.o(i.HAL_NVIC_GetPriority), (82 bytes).
    Removing stm32f4xx_hal_cortex.o(i.HAL_NVIC_GetPriorityGrouping), (16 bytes).
    Removing stm32f4xx_hal_cortex.o(i.HAL_NVIC_SetPendingIRQ), (22 bytes).
    Removing stm32f4xx_hal_cortex.o(i.HAL_NVIC_SystemReset), (32 bytes).
    Removing stm32f4xx_hal_cortex.o(i.HAL_SYSTICK_CLKSourceConfig), (24 bytes).
    Removing stm32f4xx_hal_cortex.o(i.HAL_SYSTICK_Callback), (2 bytes).
    Removing stm32f4xx_hal_cortex.o(i.HAL_SYSTICK_IRQHandler), (8 bytes).
    Removing stm32f4xx_hal_hcd.o(.rev16_text), (4 bytes).
    Removing stm32f4xx_hal_hcd.o(.revsh_text), (4 bytes).
    Removing stm32f4xx_hal_hcd.o(.rrx_text), (6 bytes).
    Removing stm32f4xx_hal_hcd.o(i.HAL_HCD_Connect_Callback), (2 bytes).
    Removing stm32f4xx_hal_hcd.o(i.HAL_HCD_DeInit), (36 bytes).
    Removing stm32f4xx_hal_hcd.o(i.HAL_HCD_Disconnect_Callback), (2 bytes).
    Removing stm32f4xx_hal_hcd.o(i.HAL_HCD_GetState), (6 bytes).
    Removing stm32f4xx_hal_hcd.o(i.HAL_HCD_HC_GetState), (14 bytes).
    Removing stm32f4xx_hal_hcd.o(i.HAL_HCD_HC_NotifyURBChange_Callback), (2 bytes).
    Removing stm32f4xx_hal_hcd.o(i.HAL_HCD_MspDeInit), (2 bytes).
    Removing stm32f4xx_hal_hcd.o(i.HAL_HCD_MspInit), (2 bytes).
    Removing stm32f4xx_hal_hcd.o(i.HAL_HCD_SOF_Callback), (2 bytes).
    Removing stm32f4xx_hal_dma_ex.o(.rev16_text), (4 bytes).
    Removing stm32f4xx_hal_dma_ex.o(.revsh_text), (4 bytes).
    Removing stm32f4xx_hal_dma_ex.o(.rrx_text), (6 bytes).
    Removing stm32f4xx_hal_dma_ex.o(i.DMA_MultiBufferSetConfig), (30 bytes).
    Removing stm32f4xx_hal_dma_ex.o(i.HAL_DMAEx_ChangeMemory), (14 bytes).
    Removing stm32f4xx_hal_dma_ex.o(i.HAL_DMAEx_MultiBufferStart), (92 bytes).
    Removing stm32f4xx_hal_dma_ex.o(i.HAL_DMAEx_MultiBufferStart_IT), (142 bytes).
    Removing stm32f4xx_hal_rcc.o(.rev16_text), (4 bytes).
    Removing stm32f4xx_hal_rcc.o(.revsh_text), (4 bytes).
    Removing stm32f4xx_hal_rcc.o(.rrx_text), (6 bytes).
    Removing stm32f4xx_hal_rcc.o(i.HAL_RCC_CSSCallback), (2 bytes).
    Removing stm32f4xx_hal_rcc.o(i.HAL_RCC_DeInit), (88 bytes).
    Removing stm32f4xx_hal_rcc.o(i.HAL_RCC_DisableCSS), (12 bytes).
    Removing stm32f4xx_hal_rcc.o(i.HAL_RCC_EnableCSS), (12 bytes).
    Removing stm32f4xx_hal_rcc.o(i.HAL_RCC_GetClockConfig), (64 bytes).
    Removing stm32f4xx_hal_rcc.o(i.HAL_RCC_GetOscConfig), (224 bytes).
    Removing stm32f4xx_hal_rcc.o(i.HAL_RCC_GetPCLK1Freq), (44 bytes).
    Removing stm32f4xx_hal_rcc.o(i.HAL_RCC_GetPCLK2Freq), (44 bytes).
    Removing stm32f4xx_hal_rcc.o(i.HAL_RCC_MCOConfig), (140 bytes).
    Removing stm32f4xx_hal_rcc.o(i.HAL_RCC_NMI_IRQHandler), (28 bytes).
    Removing stm32f4xx_hal_pwr_ex.o(.rev16_text), (4 bytes).
    Removing stm32f4xx_hal_pwr_ex.o(.revsh_text), (4 bytes).
    Removing stm32f4xx_hal_pwr_ex.o(.rrx_text), (6 bytes).
    Removing stm32f4xx_hal_pwr_ex.o(i.HAL_PWREx_ControlVoltageScaling), (88 bytes).
    Removing stm32f4xx_hal_pwr_ex.o(i.HAL_PWREx_DisableBkUpReg), (76 bytes).
    Removing stm32f4xx_hal_pwr_ex.o(i.HAL_PWREx_DisableFlashPowerDown), (28 bytes).
    Removing stm32f4xx_hal_pwr_ex.o(i.HAL_PWREx_EnableBkUpReg), (76 bytes).
    Removing stm32f4xx_hal_pwr_ex.o(i.HAL_PWREx_EnableFlashPowerDown), (24 bytes).
    Removing stm32f4xx_hal_pwr_ex.o(i.HAL_PWREx_GetVoltageRange), (16 bytes).
    Removing stm32f4xx_hal_dma.o(.rev16_text), (4 bytes).
    Removing stm32f4xx_hal_dma.o(.revsh_text), (4 bytes).
    Removing stm32f4xx_hal_dma.o(.rrx_text), (6 bytes).
    Removing stm32f4xx_hal_dma.o(i.DMA_SetConfig), (40 bytes).
    Removing stm32f4xx_hal_dma.o(i.HAL_DMA_Abort), (84 bytes).
    Removing stm32f4xx_hal_dma.o(i.HAL_DMA_DeInit), (2508 bytes).
    Removing stm32f4xx_hal_dma.o(i.HAL_DMA_GetError), (4 bytes).
    Removing stm32f4xx_hal_dma.o(i.HAL_DMA_GetState), (6 bytes).
    Removing stm32f4xx_hal_dma.o(i.HAL_DMA_IRQHandler), (3948 bytes).
    Removing stm32f4xx_hal_dma.o(i.HAL_DMA_Init), (112 bytes).
    Removing stm32f4xx_hal_dma.o(i.HAL_DMA_PollForTransfer), (4748 bytes).
    Removing stm32f4xx_hal_dma.o(i.HAL_DMA_Start), (58 bytes).
    Removing stm32f4xx_hal_dma.o(i.HAL_DMA_Start_IT), (108 bytes).
    Removing stm32f4xx_hal_flash.o(.rev16_text), (4 bytes).
    Removing stm32f4xx_hal_flash.o(.revsh_text), (4 bytes).
    Removing stm32f4xx_hal_flash.o(.rrx_text), (6 bytes).
    Removing stm32f4xx_hal_flash.o(i.FLASH_Program_Byte), (32 bytes).
    Removing stm32f4xx_hal_flash.o(i.FLASH_Program_DoubleWord), (40 bytes).
    Removing stm32f4xx_hal_flash.o(i.FLASH_Program_HalfWord), (36 bytes).
    Removing stm32f4xx_hal_flash.o(i.FLASH_Program_Word), (36 bytes).
    Removing stm32f4xx_hal_flash.o(i.FLASH_SetErrorCode), (100 bytes).
    Removing stm32f4xx_hal_flash.o(i.FLASH_WaitForLastOperation), (72 bytes).
    Removing stm32f4xx_hal_flash.o(i.HAL_FLASH_EndOfOperationCallback), (2 bytes).
    Removing stm32f4xx_hal_flash.o(i.HAL_FLASH_GetError), (12 bytes).
    Removing stm32f4xx_hal_flash.o(i.HAL_FLASH_IRQHandler), (260 bytes).
    Removing stm32f4xx_hal_flash.o(i.HAL_FLASH_Lock), (20 bytes).
    Removing stm32f4xx_hal_flash.o(i.HAL_FLASH_OB_Launch), (24 bytes).
    Removing stm32f4xx_hal_flash.o(i.HAL_FLASH_OB_Lock), (20 bytes).
    Removing stm32f4xx_hal_flash.o(i.HAL_FLASH_OB_Unlock), (40 bytes).
    Removing stm32f4xx_hal_flash.o(i.HAL_FLASH_OperationErrorCallback), (2 bytes).
    Removing stm32f4xx_hal_flash.o(i.HAL_FLASH_Program), (124 bytes).
    Removing stm32f4xx_hal_flash.o(i.HAL_FLASH_Program_IT), (116 bytes).
    Removing stm32f4xx_hal_flash.o(i.HAL_FLASH_Unlock), (40 bytes).
    Removing stm32f4xx_hal_flash.o(.bss), (32 bytes).
    Removing stm32f4xx_hal_adc_ex.o(.rev16_text), (4 bytes).
    Removing stm32f4xx_hal_adc_ex.o(.revsh_text), (4 bytes).
    Removing stm32f4xx_hal_adc_ex.o(.rrx_text), (6 bytes).
    Removing stm32f4xx_hal_adc_ex.o(i.ADC_MultiModeDMAConvCplt), (24 bytes).
    Removing stm32f4xx_hal_adc_ex.o(i.ADC_MultiModeDMAError), (20 bytes).
    Removing stm32f4xx_hal_adc_ex.o(i.ADC_MultiModeDMAHalfConvCplt), (6 bytes).
    Removing stm32f4xx_hal_adc_ex.o(i.HAL_ADCEx_InjectedConfigChannel), (428 bytes).
    Removing stm32f4xx_hal_adc_ex.o(i.HAL_ADCEx_InjectedConvCpltCallback), (2 bytes).
    Removing stm32f4xx_hal_adc_ex.o(i.HAL_ADCEx_InjectedGetValue), (58 bytes).
    Removing stm32f4xx_hal_adc_ex.o(i.HAL_ADCEx_InjectedPollForConversion), (76 bytes).
    Removing stm32f4xx_hal_adc_ex.o(i.HAL_ADCEx_InjectedStart), (176 bytes).
    Removing stm32f4xx_hal_adc_ex.o(i.HAL_ADCEx_InjectedStart_IT), (212 bytes).
    Removing stm32f4xx_hal_adc_ex.o(i.HAL_ADCEx_InjectedStop), (20 bytes).
    Removing stm32f4xx_hal_adc_ex.o(i.HAL_ADCEx_InjectedStop_IT), (40 bytes).
    Removing stm32f4xx_hal_adc_ex.o(i.HAL_ADCEx_MultiModeConfigChannel), (108 bytes).
    Removing stm32f4xx_hal_adc_ex.o(i.HAL_ADCEx_MultiModeGetValue), (12 bytes).
    Removing stm32f4xx_hal_adc_ex.o(i.HAL_ADCEx_MultiModeStart_DMA), (192 bytes).
    Removing stm32f4xx_hal_adc_ex.o(i.HAL_ADCEx_MultiModeStop_DMA), (76 bytes).
    Removing stm32f4xx_hal_can.o(.rev16_text), (4 bytes).
    Removing stm32f4xx_hal_can.o(.revsh_text), (4 bytes).
    Removing stm32f4xx_hal_can.o(.rrx_text), (6 bytes).
    Removing stm32f4xx_hal_can.o(i.CAN_Receive_IT), (304 bytes).
    Removing stm32f4xx_hal_can.o(i.CAN_Transmit_IT), (96 bytes).
    Removing stm32f4xx_hal_can.o(i.HAL_CAN_DeInit), (32 bytes).
    Removing stm32f4xx_hal_can.o(i.HAL_CAN_ErrorCallback), (2 bytes).
    Removing stm32f4xx_hal_can.o(i.HAL_CAN_GetError), (4 bytes).
    Removing stm32f4xx_hal_can.o(i.HAL_CAN_GetState), (6 bytes).
    Removing stm32f4xx_hal_can.o(i.HAL_CAN_IRQHandler), (408 bytes).
    Removing stm32f4xx_hal_can.o(i.HAL_CAN_MspDeInit), (2 bytes).
    Removing stm32f4xx_hal_can.o(i.HAL_CAN_MspInit), (2 bytes).
    Removing stm32f4xx_hal_can.o(i.HAL_CAN_Receive), (330 bytes).
    Removing stm32f4xx_hal_can.o(i.HAL_CAN_RxCpltCallback), (2 bytes).
    Removing stm32f4xx_hal_can.o(i.HAL_CAN_Sleep), (118 bytes).
    Removing stm32f4xx_hal_can.o(i.HAL_CAN_Transmit), (388 bytes).
    Removing stm32f4xx_hal_can.o(i.HAL_CAN_Transmit_IT), (318 bytes).
    Removing stm32f4xx_hal_can.o(i.HAL_CAN_TxCpltCallback), (2 bytes).
    Removing stm32f4xx_hal_can.o(i.HAL_CAN_WakeUp), (106 bytes).
    Removing stm32f4xx_hal_adc.o(.rev16_text), (4 bytes).
    Removing stm32f4xx_hal_adc.o(.revsh_text), (4 bytes).
    Removing stm32f4xx_hal_adc.o(.rrx_text), (6 bytes).
    Removing stm32f4xx_hal_adc.o(i.ADC_DMAConvCplt), (30 bytes).
    Removing stm32f4xx_hal_adc.o(i.ADC_DMAError), (24 bytes).
    Removing stm32f4xx_hal_adc.o(i.ADC_DMAHalfConvCplt), (10 bytes).
    Removing stm32f4xx_hal_adc.o(i.HAL_ADC_AnalogWDGConfig), (112 bytes).
    Removing stm32f4xx_hal_adc.o(i.HAL_ADC_ConvCpltCallback), (2 bytes).
    Removing stm32f4xx_hal_adc.o(i.HAL_ADC_ConvHalfCpltCallback), (2 bytes).
    Removing stm32f4xx_hal_adc.o(i.HAL_ADC_DeInit), (32 bytes).
    Removing stm32f4xx_hal_adc.o(i.HAL_ADC_ErrorCallback), (2 bytes).
    Removing stm32f4xx_hal_adc.o(i.HAL_ADC_GetError), (4 bytes).
    Removing stm32f4xx_hal_adc.o(i.HAL_ADC_GetState), (6 bytes).
    Removing stm32f4xx_hal_adc.o(i.HAL_ADC_GetValue), (6 bytes).
    Removing stm32f4xx_hal_adc.o(i.HAL_ADC_IRQHandler), (288 bytes).
    Removing stm32f4xx_hal_adc.o(i.HAL_ADC_LevelOutOfWindowCallback), (2 bytes).
    Removing stm32f4xx_hal_adc.o(i.HAL_ADC_MspDeInit), (2 bytes).
    Removing stm32f4xx_hal_adc.o(i.HAL_ADC_MspInit), (2 bytes).
    Removing stm32f4xx_hal_adc.o(i.HAL_ADC_PollForConversion), (108 bytes).
    Removing stm32f4xx_hal_adc.o(i.HAL_ADC_PollForEvent), (96 bytes).
    Removing stm32f4xx_hal_adc.o(i.HAL_ADC_Start), (140 bytes).
    Removing stm32f4xx_hal_adc.o(i.HAL_ADC_Start_DMA), (176 bytes).
    Removing stm32f4xx_hal_adc.o(i.HAL_ADC_Start_IT), (160 bytes).
    Removing stm32f4xx_hal_adc.o(i.HAL_ADC_Stop), (20 bytes).
    Removing stm32f4xx_hal_adc.o(i.HAL_ADC_Stop_DMA), (50 bytes).
    Removing stm32f4xx_hal_adc.o(i.HAL_ADC_Stop_IT), (40 bytes).
    Removing stm32f4xx_ll_usb.o(.rev16_text), (4 bytes).
    Removing stm32f4xx_ll_usb.o(.revsh_text), (4 bytes).
    Removing stm32f4xx_ll_usb.o(.rrx_text), (6 bytes).
    Removing stm32f4xx_ll_usb.o(i.USB_ActivateDedicatedEndpoint), (216 bytes).
    Removing stm32f4xx_ll_usb.o(i.USB_ActivateEndpoint), (128 bytes).
    Removing stm32f4xx_ll_usb.o(i.USB_ActivateSetup), (52 bytes).
    Removing stm32f4xx_ll_usb.o(i.USB_ClearInterrupts), (8 bytes).
    Removing stm32f4xx_ll_usb.o(i.USB_DeactivateDedicatedEndpoint), (78 bytes).
    Removing stm32f4xx_ll_usb.o(i.USB_DeactivateEndpoint), (110 bytes).
    Removing stm32f4xx_ll_usb.o(i.USB_DevConnect), (24 bytes).
    Removing stm32f4xx_ll_usb.o(i.USB_DevDisconnect), (24 bytes).
    Removing stm32f4xx_ll_usb.o(i.USB_DevInit), (324 bytes).
    Removing stm32f4xx_ll_usb.o(i.USB_EP0StartXfer), (320 bytes).
    Removing stm32f4xx_ll_usb.o(i.USB_EP0_OutStart), (62 bytes).
    Removing stm32f4xx_ll_usb.o(i.USB_EPClearStall), (100 bytes).
    Removing stm32f4xx_ll_usb.o(i.USB_EPSetStall), (94 bytes).
    Removing stm32f4xx_ll_usb.o(i.USB_EPStartXfer), (540 bytes).
    Removing stm32f4xx_ll_usb.o(i.USB_GetDevSpeed), (60 bytes).
    Removing stm32f4xx_ll_usb.o(i.USB_ReadDevAllInEpInterrupt), (14 bytes).
    Removing stm32f4xx_ll_usb.o(i.USB_ReadDevAllOutEpInterrupt), (14 bytes).
    Removing stm32f4xx_ll_usb.o(i.USB_ReadDevInEPInterrupt), (30 bytes).
    Removing stm32f4xx_ll_usb.o(i.USB_ReadDevOutEPInterrupt), (16 bytes).
    Removing stm32f4xx_ll_usb.o(i.USB_SetDevAddress), (34 bytes).
    Removing stm32f4xx_ll_usb.o(i.USB_SetDevSpeed), (14 bytes).
    Removing stm32f4xx_ll_usb.o(i.USB_StopDevice), (66 bytes).
    Removing stm32f4xx_ll_usb.o(.data), (4 bytes).
    Removing port.o(i.vPortEndScheduler), (24 bytes).
    Removing tasks.o(i.prvListTaskWithinSingleList), (138 bytes).
    Removing tasks.o(i.prvTaskIsTaskSuspended), (44 bytes).
    Removing tasks.o(i.uxTaskGetNumberOfTasks), (12 bytes).
    Removing tasks.o(i.uxTaskGetSystemState), (148 bytes).
    Removing tasks.o(i.uxTaskGetTaskNumber), (8 bytes).
    Removing tasks.o(i.uxTaskPriorityGet), (28 bytes).
    Removing tasks.o(i.uxTaskResetEventItemValue), (24 bytes).
    Removing tasks.o(i.vTaskDelete), (140 bytes).
    Removing tasks.o(i.vTaskEndScheduler), (24 bytes).
    Removing tasks.o(i.vTaskPlaceOnUnorderedEventList), (108 bytes).
    Removing tasks.o(i.vTaskPrioritySet), (168 bytes).
    Removing tasks.o(i.vTaskResume), (104 bytes).
    Removing tasks.o(i.vTaskSetTaskNumber), (8 bytes).
    Removing tasks.o(i.vTaskSuspend), (156 bytes).
    Removing tasks.o(i.xTaskGetCurrentTaskHandle), (12 bytes).
    Removing tasks.o(i.xTaskGetTickCount), (24 bytes).
    Removing tasks.o(i.xTaskGetTickCountFromISR), (28 bytes).
    Removing tasks.o(i.xTaskRemoveFromUnorderedEventList), (100 bytes).
    Removing tasks.o(i.xTaskResumeFromISR), (120 bytes).
    Removing cmsis_os.o(i.osDelayUntil), (4 bytes).
    Removing cmsis_os.o(i.osKernelRunning), (18 bytes).
    Removing cmsis_os.o(i.osKernelSysTick), (24 bytes).
    Removing cmsis_os.o(i.osMessagePeek), (78 bytes).
    Removing cmsis_os.o(i.osMutexCreate), (6 bytes).
    Removing cmsis_os.o(i.osMutexDelete), (24 bytes).
    Removing cmsis_os.o(i.osMutexRelease), (72 bytes).
    Removing cmsis_os.o(i.osMutexWait), (96 bytes).
    Removing cmsis_os.o(i.osPoolAlloc), (96 bytes).
    Removing cmsis_os.o(i.osPoolCAlloc), (16 bytes).
    Removing cmsis_os.o(i.osPoolCreate), (94 bytes).
    Removing cmsis_os.o(i.osPoolFree), (48 bytes).
    Removing cmsis_os.o(i.osRecursiveMutexCreate), (6 bytes).
    Removing cmsis_os.o(i.osRecursiveMutexRelease), (18 bytes).
    Removing cmsis_os.o(i.osRecursiveMutexWait), (42 bytes).
    Removing cmsis_os.o(i.osSemaphoreCreate), (46 bytes).
    Removing cmsis_os.o(i.osSemaphoreDelete), (24 bytes).
    Removing cmsis_os.o(i.osSemaphoreRelease), (72 bytes).
    Removing cmsis_os.o(i.osSemaphoreWait), (96 bytes).
    Removing cmsis_os.o(i.osThreadGetId), (4 bytes).
    Removing cmsis_os.o(i.osThreadGetPriority), (20 bytes).
    Removing cmsis_os.o(i.osThreadList), (4 bytes).
    Removing cmsis_os.o(i.osThreadResume), (44 bytes).
    Removing cmsis_os.o(i.osThreadResumeAll), (18 bytes).
    Removing cmsis_os.o(i.osThreadSetPriority), (22 bytes).
    Removing cmsis_os.o(i.osThreadSuspend), (10 bytes).
    Removing cmsis_os.o(i.osThreadSuspendAll), (10 bytes).
    Removing cmsis_os.o(i.osThreadTerminate), (10 bytes).
    Removing cmsis_os.o(i.osThreadYield), (10 bytes).
    Removing cmsis_os.o(i.osTimerCreate), (4 bytes).
    Removing cmsis_os.o(i.osTimerDelete), (4 bytes).
    Removing cmsis_os.o(i.osTimerStart), (4 bytes).
    Removing cmsis_os.o(i.osTimerStop), (4 bytes).
    Removing event_groups.o(i.prvTestWaitCondition), (20 bytes).
    Removing event_groups.o(i.uxEventGroupGetNumber), (8 bytes).
    Removing event_groups.o(i.vEventGroupClearBitsCallback), (4 bytes).
    Removing event_groups.o(i.vEventGroupDelete), (60 bytes).
    Removing event_groups.o(i.vEventGroupSetBitsCallback), (4 bytes).
    Removing event_groups.o(i.xEventGroupClearBits), (36 bytes).
    Removing event_groups.o(i.xEventGroupCreate), (26 bytes).
    Removing event_groups.o(i.xEventGroupGetBitsFromISR), (18 bytes).
    Removing event_groups.o(i.xEventGroupSetBits), (112 bytes).
    Removing event_groups.o(i.xEventGroupSync), (156 bytes).
    Removing event_groups.o(i.xEventGroupWaitBits), (198 bytes).
    Removing croutine.o(i.prvCheckDelayedList), (132 bytes).
    Removing croutine.o(i.vCoRoutineAddToDelayedList), (64 bytes).
    Removing croutine.o(i.vCoRoutineSchedule), (156 bytes).
    Removing croutine.o(i.xCoRoutineCreate), (176 bytes).
    Removing croutine.o(i.xCoRoutineRemoveFromEventList), (52 bytes).
    Removing croutine.o(.bss), (100 bytes).
    Removing croutine.o(.data), (28 bytes).
    Removing heap_4.o(i.vPortInitialiseBlocks), (2 bytes).
    Removing heap_4.o(i.xPortGetFreeHeapSize), (12 bytes).
    Removing heap_4.o(i.xPortGetMinimumEverFreeHeapSize), (12 bytes).
    Removing queue.o(i.ucQueueGetQueueType), (6 bytes).
    Removing queue.o(i.uxQueueGetQueueNumber), (4 bytes).
    Removing queue.o(i.uxQueueMessagesWaiting), (26 bytes).
    Removing queue.o(i.uxQueueMessagesWaitingFromISR), (14 bytes).
    Removing queue.o(i.uxQueueSpacesAvailable), (30 bytes).
    Removing queue.o(i.vQueueAddToRegistry), (40 bytes).
    Removing queue.o(i.vQueueDelete), (34 bytes).
    Removing queue.o(i.vQueueSetQueueNumber), (4 bytes).
    Removing queue.o(i.vQueueUnregisterQueue), (36 bytes).
    Removing queue.o(i.xQueueCreateCountingSemaphore), (42 bytes).
    Removing queue.o(i.xQueueCreateMutex), (80 bytes).
    Removing queue.o(i.xQueueGiveMutexRecursive), (52 bytes).
    Removing queue.o(i.xQueueIsQueueEmptyFromISR), (22 bytes).
    Removing queue.o(i.xQueueIsQueueFullFromISR), (26 bytes).
    Removing queue.o(i.xQueuePeekFromISR), (74 bytes).
    Removing queue.o(i.xQueueTakeMutexRecursive), (58 bytes).
    Removing queue.o(.bss), (64 bytes).
    Removing system_stm32f4xx.o(.rev16_text), (4 bytes).
    Removing system_stm32f4xx.o(.revsh_text), (4 bytes).
    Removing system_stm32f4xx.o(.rrx_text), (6 bytes).
    Removing system_stm32f4xx.o(i.SystemCoreClockUpdate), (120 bytes).
    Removing main.o(.rev16_text), (4 bytes).
    Removing main.o(.revsh_text), (4 bytes).
    Removing main.o(.rrx_text), (6 bytes).
    Removing main.o(i.vTask_SendDataToPc), (2 bytes).
    Removing usb_host.o(.rev16_text), (4 bytes).
    Removing usb_host.o(.revsh_text), (4 bytes).
    Removing usb_host.o(.rrx_text), (6 bytes).
    Removing usb_host.o(i.MX_USB_HOST_Process), (12 bytes).
    Removing stm32f4xx_hal_msp.o(.rev16_text), (4 bytes).
    Removing stm32f4xx_hal_msp.o(.revsh_text), (4 bytes).
    Removing stm32f4xx_hal_msp.o(.rrx_text), (6 bytes).
    Removing stm32f4xx_hal_msp.o(i.HAL_ADC_MspDeInit), (40 bytes).
    Removing stm32f4xx_hal_msp.o(i.HAL_CAN_MspDeInit), (80 bytes).
    Removing stm32f4xx_it.o(.rev16_text), (4 bytes).
    Removing stm32f4xx_it.o(.revsh_text), (4 bytes).
    Removing stm32f4xx_it.o(.rrx_text), (6 bytes).
    Removing usbh_conf.o(.rev16_text), (4 bytes).
    Removing usbh_conf.o(.revsh_text), (4 bytes).
    Removing usbh_conf.o(.rrx_text), (6 bytes).
    Removing usbh_conf.o(i.HAL_HCD_MspDeInit), (64 bytes).
    Removing usbh_conf.o(i.USBH_LL_DeInit), (14 bytes).

476 unused section(s) (total 36504 bytes) removed from the image.

==============================================================================

Image Symbol Table

    Local Symbols

    Symbol Name                              Value     Ov Type        Size  Object(Section)

    ../clib/../cmprslib/zerorunl2.c          0x00000000   Number         0  __dczerorl2.o ABSOLUTE
    ../clib/microlib/init/entry.s            0x00000000   Number         0  entry7a.o ABSOLUTE
    ../clib/microlib/init/entry.s            0x00000000   Number         0  entry7b.o ABSOLUTE
    ../clib/microlib/init/entry.s            0x00000000   Number         0  entry8a.o ABSOLUTE
    ../clib/microlib/init/entry.s            0x00000000   Number         0  entry9a.o ABSOLUTE
    ../clib/microlib/init/entry.s            0x00000000   Number         0  entry9b.o ABSOLUTE
    ../clib/microlib/init/entry.s            0x00000000   Number         0  entry10a.o ABSOLUTE
    ../clib/microlib/init/entry.s            0x00000000   Number         0  entry11b.o ABSOLUTE
    ../clib/microlib/init/entry.s            0x00000000   Number         0  entry10b.o ABSOLUTE
    ../clib/microlib/init/entry.s            0x00000000   Number         0  entry11a.o ABSOLUTE
    ../clib/microlib/init/entry.s            0x00000000   Number         0  entry.o ABSOLUTE
    ../clib/microlib/init/entry.s            0x00000000   Number         0  entry2.o ABSOLUTE
    ../clib/microlib/init/entry.s            0x00000000   Number         0  entry8b.o ABSOLUTE
    ../clib/microlib/init/entry.s            0x00000000   Number         0  entry5.o ABSOLUTE
    ../clib/microlib/malloc/malloc.c         0x00000000   Number         0  malloca.o ABSOLUTE
    ../clib/microlib/malloc/malloc.c         0x00000000   Number         0  mallocr.o ABSOLUTE
    ../clib/microlib/malloc/malloc.c         0x00000000   Number         0  malloc.o ABSOLUTE
    ../clib/microlib/malloc/malloc.c         0x00000000   Number         0  mallocra.o ABSOLUTE
    ../clib/microlib/malloc/mvars.c          0x00000000   Number         0  mvars.o ABSOLUTE
    ../clib/microlib/string/memcpy.c         0x00000000   Number         0  memcpya.o ABSOLUTE
    ../clib/microlib/string/memcpy.c         0x00000000   Number         0  memcpyb.o ABSOLUTE
    ../clib/microlib/string/memset.c         0x00000000   Number         0  memseta.o ABSOLUTE
    ..\Drivers\CMSIS\Device\ST\STM32F4xx\Source\Templates\arm\startup_stm32f407xx.s 0x00000000   Number         0  startup_stm32f407xx.o ABSOLUTE
    ..\Drivers\CMSIS\Device\ST\STM32F4xx\Source\Templates\system_stm32f4xx.c 0x00000000   Number         0  system_stm32f4xx.o ABSOLUTE
    ..\Drivers\STM32F4xx_HAL_Driver\Src\stm32f4xx_hal.c 0x00000000   Number         0  stm32f4xx_hal.o ABSOLUTE
    ..\Drivers\STM32F4xx_HAL_Driver\Src\stm32f4xx_hal_adc.c 0x00000000   Number         0  stm32f4xx_hal_adc.o ABSOLUTE
    ..\Drivers\STM32F4xx_HAL_Driver\Src\stm32f4xx_hal_adc_ex.c 0x00000000   Number         0  stm32f4xx_hal_adc_ex.o ABSOLUTE
    ..\Drivers\STM32F4xx_HAL_Driver\Src\stm32f4xx_hal_can.c 0x00000000   Number         0  stm32f4xx_hal_can.o ABSOLUTE
    ..\Drivers\STM32F4xx_HAL_Driver\Src\stm32f4xx_hal_cortex.c 0x00000000   Number         0  stm32f4xx_hal_cortex.o ABSOLUTE
    ..\Drivers\STM32F4xx_HAL_Driver\Src\stm32f4xx_hal_dma.c 0x00000000   Number         0  stm32f4xx_hal_dma.o ABSOLUTE
    ..\Drivers\STM32F4xx_HAL_Driver\Src\stm32f4xx_hal_dma_ex.c 0x00000000   Number         0  stm32f4xx_hal_dma_ex.o ABSOLUTE
    ..\Drivers\STM32F4xx_HAL_Driver\Src\stm32f4xx_hal_flash.c 0x00000000   Number         0  stm32f4xx_hal_flash.o ABSOLUTE
    ..\Drivers\STM32F4xx_HAL_Driver\Src\stm32f4xx_hal_flash_ex.c 0x00000000   Number         0  stm32f4xx_hal_flash_ex.o ABSOLUTE
    ..\Drivers\STM32F4xx_HAL_Driver\Src\stm32f4xx_hal_flash_ramfunc.c 0x00000000   Number         0  stm32f4xx_hal_flash_ramfunc.o ABSOLUTE
    ..\Drivers\STM32F4xx_HAL_Driver\Src\stm32f4xx_hal_gpio.c 0x00000000   Number         0  stm32f4xx_hal_gpio.o ABSOLUTE
    ..\Drivers\STM32F4xx_HAL_Driver\Src\stm32f4xx_hal_hcd.c 0x00000000   Number         0  stm32f4xx_hal_hcd.o ABSOLUTE
    ..\Drivers\STM32F4xx_HAL_Driver\Src\stm32f4xx_hal_pwr.c 0x00000000   Number         0  stm32f4xx_hal_pwr.o ABSOLUTE
    ..\Drivers\STM32F4xx_HAL_Driver\Src\stm32f4xx_hal_pwr_ex.c 0x00000000   Number         0  stm32f4xx_hal_pwr_ex.o ABSOLUTE
    ..\Drivers\STM32F4xx_HAL_Driver\Src\stm32f4xx_hal_rcc.c 0x00000000   Number         0  stm32f4xx_hal_rcc.o ABSOLUTE
    ..\Drivers\STM32F4xx_HAL_Driver\Src\stm32f4xx_hal_rcc_ex.c 0x00000000   Number         0  stm32f4xx_hal_rcc_ex.o ABSOLUTE
    ..\Drivers\STM32F4xx_HAL_Driver\Src\stm32f4xx_ll_usb.c 0x00000000   Number         0  stm32f4xx_ll_usb.o ABSOLUTE
    ..\Middlewares\ST\STM32_USB_Host_Library\Class\AUDIO\Src\usbh_audio.c 0x00000000   Number         0  usbh_audio.o ABSOLUTE
    ..\Middlewares\ST\STM32_USB_Host_Library\Class\CDC\Src\usbh_cdc.c 0x00000000   Number         0  usbh_cdc.o ABSOLUTE
    ..\Middlewares\ST\STM32_USB_Host_Library\Class\HID\Src\usbh_hid.c 0x00000000   Number         0  usbh_hid.o ABSOLUTE
    ..\Middlewares\ST\STM32_USB_Host_Library\Class\HID\Src\usbh_hid_keybd.c 0x00000000   Number         0  usbh_hid_keybd.o ABSOLUTE
    ..\Middlewares\ST\STM32_USB_Host_Library\Class\HID\Src\usbh_hid_mouse.c 0x00000000   Number         0  usbh_hid_mouse.o ABSOLUTE
    ..\Middlewares\ST\STM32_USB_Host_Library\Class\HID\Src\usbh_hid_parser.c 0x00000000   Number         0  usbh_hid_parser.o ABSOLUTE
    ..\Middlewares\ST\STM32_USB_Host_Library\Class\MSC\Src\usbh_msc.c 0x00000000   Number         0  usbh_msc.o ABSOLUTE
    ..\Middlewares\ST\STM32_USB_Host_Library\Class\MSC\Src\usbh_msc_bot.c 0x00000000   Number         0  usbh_msc_bot.o ABSOLUTE
    ..\Middlewares\ST\STM32_USB_Host_Library\Class\MSC\Src\usbh_msc_scsi.c 0x00000000   Number         0  usbh_msc_scsi.o ABSOLUTE
    ..\Middlewares\ST\STM32_USB_Host_Library\Class\MTP\Src\usbh_mtp.c 0x00000000   Number         0  usbh_mtp.o ABSOLUTE
    ..\Middlewares\ST\STM32_USB_Host_Library\Class\MTP\Src\usbh_mtp_ptp.c 0x00000000   Number         0  usbh_mtp_ptp.o ABSOLUTE
    ..\Middlewares\ST\STM32_USB_Host_Library\Core\Src\usbh_core.c 0x00000000   Number         0  usbh_core.o ABSOLUTE
    ..\Middlewares\ST\STM32_USB_Host_Library\Core\Src\usbh_ctlreq.c 0x00000000   Number         0  usbh_ctlreq.o ABSOLUTE
    ..\Middlewares\ST\STM32_USB_Host_Library\Core\Src\usbh_ioreq.c 0x00000000   Number         0  usbh_ioreq.o ABSOLUTE
    ..\Middlewares\ST\STM32_USB_Host_Library\Core\Src\usbh_pipes.c 0x00000000   Number         0  usbh_pipes.o ABSOLUTE
    ..\Middlewares\Third_Party\FreeRTOS\Source\CMSIS_RTOS\cmsis_os.c 0x00000000   Number         0  cmsis_os.o ABSOLUTE
    ..\Middlewares\Third_Party\FreeRTOS\Source\croutine.c 0x00000000   Number         0  croutine.o ABSOLUTE
    ..\Middlewares\Third_Party\FreeRTOS\Source\event_groups.c 0x00000000   Number         0  event_groups.o ABSOLUTE
    ..\Middlewares\Third_Party\FreeRTOS\Source\list.c 0x00000000   Number         0  list.o ABSOLUTE
    ..\Middlewares\Third_Party\FreeRTOS\Source\portable\MemMang\heap_4.c 0x00000000   Number         0  heap_4.o ABSOLUTE
    ..\Middlewares\Third_Party\FreeRTOS\Source\portable\RVDS\ARM_CM4F\port.c 0x00000000   Number         0  port.o ABSOLUTE
    ..\Middlewares\Third_Party\FreeRTOS\Source\queue.c 0x00000000   Number         0  queue.o ABSOLUTE
    ..\Middlewares\Third_Party\FreeRTOS\Source\tasks.c 0x00000000   Number         0  tasks.o ABSOLUTE
    ..\Middlewares\Third_Party\FreeRTOS\Source\timers.c 0x00000000   Number         0  timers.o ABSOLUTE
    ..\Src\freertos.c                        0x00000000   Number         0  freertos.o ABSOLUTE
    ..\Src\main.c                            0x00000000   Number         0  main.o ABSOLUTE
    ..\Src\stm32f4xx_hal_msp.c               0x00000000   Number         0  stm32f4xx_hal_msp.o ABSOLUTE
    ..\Src\stm32f4xx_it.c                    0x00000000   Number         0  stm32f4xx_it.o ABSOLUTE
    ..\Src\usb_host.c                        0x00000000   Number         0  usb_host.o ABSOLUTE
    ..\Src\usbh_conf.c                       0x00000000   Number         0  usbh_conf.o ABSOLUTE
    ..\\Drivers\\CMSIS\\Device\\ST\\STM32F4xx\\Source\\Templates\\system_stm32f4xx.c 0x00000000   Number         0  system_stm32f4xx.o ABSOLUTE
    ..\\Drivers\\STM32F4xx_HAL_Driver\\Src\\stm32f4xx_hal.c 0x00000000   Number         0  stm32f4xx_hal.o ABSOLUTE
    ..\\Drivers\\STM32F4xx_HAL_Driver\\Src\\stm32f4xx_hal_adc.c 0x00000000   Number         0  stm32f4xx_hal_adc.o ABSOLUTE
    ..\\Drivers\\STM32F4xx_HAL_Driver\\Src\\stm32f4xx_hal_adc_ex.c 0x00000000   Number         0  stm32f4xx_hal_adc_ex.o ABSOLUTE
    ..\\Drivers\\STM32F4xx_HAL_Driver\\Src\\stm32f4xx_hal_can.c 0x00000000   Number         0  stm32f4xx_hal_can.o ABSOLUTE
    ..\\Drivers\\STM32F4xx_HAL_Driver\\Src\\stm32f4xx_hal_cortex.c 0x00000000   Number         0  stm32f4xx_hal_cortex.o ABSOLUTE
    ..\\Drivers\\STM32F4xx_HAL_Driver\\Src\\stm32f4xx_hal_dma.c 0x00000000   Number         0  stm32f4xx_hal_dma.o ABSOLUTE
    ..\\Drivers\\STM32F4xx_HAL_Driver\\Src\\stm32f4xx_hal_dma_ex.c 0x00000000   Number         0  stm32f4xx_hal_dma_ex.o ABSOLUTE
    ..\\Drivers\\STM32F4xx_HAL_Driver\\Src\\stm32f4xx_hal_flash.c 0x00000000   Number         0  stm32f4xx_hal_flash.o ABSOLUTE
    ..\\Drivers\\STM32F4xx_HAL_Driver\\Src\\stm32f4xx_hal_flash_ex.c 0x00000000   Number         0  stm32f4xx_hal_flash_ex.o ABSOLUTE
    ..\\Drivers\\STM32F4xx_HAL_Driver\\Src\\stm32f4xx_hal_flash_ramfunc.c 0x00000000   Number         0  stm32f4xx_hal_flash_ramfunc.o ABSOLUTE
    ..\\Drivers\\STM32F4xx_HAL_Driver\\Src\\stm32f4xx_hal_gpio.c 0x00000000   Number         0  stm32f4xx_hal_gpio.o ABSOLUTE
    ..\\Drivers\\STM32F4xx_HAL_Driver\\Src\\stm32f4xx_hal_hcd.c 0x00000000   Number         0  stm32f4xx_hal_hcd.o ABSOLUTE
    ..\\Drivers\\STM32F4xx_HAL_Driver\\Src\\stm32f4xx_hal_pwr.c 0x00000000   Number         0  stm32f4xx_hal_pwr.o ABSOLUTE
    ..\\Drivers\\STM32F4xx_HAL_Driver\\Src\\stm32f4xx_hal_pwr_ex.c 0x00000000   Number         0  stm32f4xx_hal_pwr_ex.o ABSOLUTE
    ..\\Drivers\\STM32F4xx_HAL_Driver\\Src\\stm32f4xx_hal_rcc.c 0x00000000   Number         0  stm32f4xx_hal_rcc.o ABSOLUTE
    ..\\Drivers\\STM32F4xx_HAL_Driver\\Src\\stm32f4xx_hal_rcc_ex.c 0x00000000   Number         0  stm32f4xx_hal_rcc_ex.o ABSOLUTE
    ..\\Drivers\\STM32F4xx_HAL_Driver\\Src\\stm32f4xx_ll_usb.c 0x00000000   Number         0  stm32f4xx_ll_usb.o ABSOLUTE
    ..\\Middlewares\\ST\\STM32_USB_Host_Library\\Class\\AUDIO\\Src\\usbh_audio.c 0x00000000   Number         0  usbh_audio.o ABSOLUTE
    ..\\Middlewares\\ST\\STM32_USB_Host_Library\\Class\\CDC\\Src\\usbh_cdc.c 0x00000000   Number         0  usbh_cdc.o ABSOLUTE
    ..\\Middlewares\\ST\\STM32_USB_Host_Library\\Class\\HID\\Src\\usbh_hid.c 0x00000000   Number         0  usbh_hid.o ABSOLUTE
    ..\\Middlewares\\ST\\STM32_USB_Host_Library\\Class\\HID\\Src\\usbh_hid_keybd.c 0x00000000   Number         0  usbh_hid_keybd.o ABSOLUTE
    ..\\Middlewares\\ST\\STM32_USB_Host_Library\\Class\\HID\\Src\\usbh_hid_mouse.c 0x00000000   Number         0  usbh_hid_mouse.o ABSOLUTE
    ..\\Middlewares\\ST\\STM32_USB_Host_Library\\Class\\HID\\Src\\usbh_hid_parser.c 0x00000000   Number         0  usbh_hid_parser.o ABSOLUTE
    ..\\Middlewares\\ST\\STM32_USB_Host_Library\\Class\\MSC\\Src\\usbh_msc.c 0x00000000   Number         0  usbh_msc.o ABSOLUTE
    ..\\Middlewares\\ST\\STM32_USB_Host_Library\\Class\\MSC\\Src\\usbh_msc_bot.c 0x00000000   Number         0  usbh_msc_bot.o ABSOLUTE
    ..\\Middlewares\\ST\\STM32_USB_Host_Library\\Class\\MSC\\Src\\usbh_msc_scsi.c 0x00000000   Number         0  usbh_msc_scsi.o ABSOLUTE
    ..\\Middlewares\\ST\\STM32_USB_Host_Library\\Class\\MTP\\Src\\usbh_mtp.c 0x00000000   Number         0  usbh_mtp.o ABSOLUTE
    ..\\Middlewares\\ST\\STM32_USB_Host_Library\\Class\\MTP\\Src\\usbh_mtp_ptp.c 0x00000000   Number         0  usbh_mtp_ptp.o ABSOLUTE
    ..\\Middlewares\\ST\\STM32_USB_Host_Library\\Core\\Src\\usbh_core.c 0x00000000   Number         0  usbh_core.o ABSOLUTE
    ..\\Middlewares\\ST\\STM32_USB_Host_Library\\Core\\Src\\usbh_ctlreq.c 0x00000000   Number         0  usbh_ctlreq.o ABSOLUTE
    ..\\Middlewares\\ST\\STM32_USB_Host_Library\\Core\\Src\\usbh_ioreq.c 0x00000000   Number         0  usbh_ioreq.o ABSOLUTE
    ..\\Middlewares\\ST\\STM32_USB_Host_Library\\Core\\Src\\usbh_pipes.c 0x00000000   Number         0  usbh_pipes.o ABSOLUTE
    ..\\Middlewares\\Third_Party\\FreeRTOS\\Source\\portable\\RVDS\\ARM_CM4F\\port.c 0x00000000   Number         0  port.o ABSOLUTE
    ..\\Src\\main.c                          0x00000000   Number         0  main.o ABSOLUTE
    ..\\Src\\stm32f4xx_hal_msp.c             0x00000000   Number         0  stm32f4xx_hal_msp.o ABSOLUTE
    ..\\Src\\stm32f4xx_it.c                  0x00000000   Number         0  stm32f4xx_it.o ABSOLUTE
    ..\\Src\\usb_host.c                      0x00000000   Number         0  usb_host.o ABSOLUTE
    ..\\Src\\usbh_conf.c                     0x00000000   Number         0  usbh_conf.o ABSOLUTE
    dc.s                                     0x00000000   Number         0  dc.o ABSOLUTE
    handlers.s                               0x00000000   Number         0  handlers.o ABSOLUTE
    init.s                                   0x00000000   Number         0  init.o ABSOLUTE
    RESET                                    0x08000000   Section      392  startup_stm32f407xx.o(RESET)
    .ARM.Collect$$$$00000000                 0x08000188   Section        0  entry.o(.ARM.Collect$$$$00000000)
    .ARM.Collect$$$$00000001                 0x08000188   Section        4  entry2.o(.ARM.Collect$$$$00000001)
    .ARM.Collect$$$$00000004                 0x0800018c   Section        4  entry5.o(.ARM.Collect$$$$00000004)
    .ARM.Collect$$$$00000008                 0x08000190   Section        0  entry7b.o(.ARM.Collect$$$$00000008)
    .ARM.Collect$$$$0000000A                 0x08000190   Section        0  entry8b.o(.ARM.Collect$$$$0000000A)
    .ARM.Collect$$$$0000000B                 0x08000190   Section        8  entry9a.o(.ARM.Collect$$$$0000000B)
    .ARM.Collect$$$$0000000D                 0x08000198   Section        0  entry10a.o(.ARM.Collect$$$$0000000D)
    .ARM.Collect$$$$0000000F                 0x08000198   Section        0  entry11a.o(.ARM.Collect$$$$0000000F)
    .ARM.Collect$$$$00002712                 0x08000198   Section        4  entry2.o(.ARM.Collect$$$$00002712)
    __lit__00000000                          0x08000198   Data           4  entry2.o(.ARM.Collect$$$$00002712)
    .emb_text                                0x0800019c   Section      198  port.o(.emb_text)
    $v0                                      0x0800019c   Number         0  port.o(.emb_text)
    .text                                    0x08000264   Section       36  startup_stm32f407xx.o(.text)
    $v0                                      0x08000264   Number         0  startup_stm32f407xx.o(.text)
    .text                                    0x08000288   Section        0  memcpya.o(.text)
    .text                                    0x080002ac   Section        0  memseta.o(.text)
    .text                                    0x080002d0   Section       36  init.o(.text)
    .text                                    0x080002f4   Section        0  __dczerorl2.o(.text)
    i.ADC_Init                               0x0800034c   Section        0  stm32f4xx_hal_adc.o(i.ADC_Init)
    ADC_Init                                 0x0800034d   Thumb Code   300  stm32f4xx_hal_adc.o(i.ADC_Init)
    i.CAN1_RX0_IRQHandler                    0x08000480   Section        0  stm32f4xx_it.o(i.CAN1_RX0_IRQHandler)
    i.CDC_ProcessReception                   0x08000500   Section        0  usbh_cdc.o(i.CDC_ProcessReception)
    CDC_ProcessReception                     0x08000501   Thumb Code   122  usbh_cdc.o(i.CDC_ProcessReception)
    i.CDC_ProcessTransmission                0x0800057a   Section        0  usbh_cdc.o(i.CDC_ProcessTransmission)
    CDC_ProcessTransmission                  0x0800057b   Thumb Code   128  usbh_cdc.o(i.CDC_ProcessTransmission)
    i.DeInitStateMachine                     0x080005fc   Section        0  usbh_core.o(i.DeInitStateMachine)
    DeInitStateMachine                       0x080005fd   Thumb Code    72  usbh_core.o(i.DeInitStateMachine)
    i.GetLineCoding                          0x08000644   Section        0  usbh_cdc.o(i.GetLineCoding)
    GetLineCoding                            0x08000645   Thumb Code    22  usbh_cdc.o(i.GetLineCoding)
    i.HAL_ADC_ConfigChannel                  0x0800065c   Section        0  stm32f4xx_hal_adc.o(i.HAL_ADC_ConfigChannel)
    i.HAL_ADC_Init                           0x080007ac   Section        0  stm32f4xx_hal_adc.o(i.HAL_ADC_Init)
    i.HAL_ADC_MspInit                        0x080007e8   Section        0  stm32f4xx_hal_msp.o(i.HAL_ADC_MspInit)
    i.HAL_CAN_ConfigFilter                   0x0800082c   Section        0  stm32f4xx_hal_can.o(i.HAL_CAN_ConfigFilter)
    i.HAL_CAN_Init                           0x08000910   Section        0  stm32f4xx_hal_can.o(i.HAL_CAN_Init)
    i.HAL_CAN_MspInit                        0x08000a58   Section        0  stm32f4xx_hal_msp.o(i.HAL_CAN_MspInit)
    i.HAL_CAN_Receive_IT                     0x08000ae4   Section        0  stm32f4xx_hal_can.o(i.HAL_CAN_Receive_IT)
    i.HAL_Delay                              0x08000b6a   Section        0  stm32f4xx_hal.o(i.HAL_Delay)
    i.HAL_GPIO_Init                          0x08000b80   Section        0  stm32f4xx_hal_gpio.o(i.HAL_GPIO_Init)
    i.HAL_GPIO_WritePin                      0x08000d40   Section        0  stm32f4xx_hal_gpio.o(i.HAL_GPIO_WritePin)
    i.HAL_GetTick                            0x08000d4c   Section        0  stm32f4xx_hal.o(i.HAL_GetTick)
    i.HAL_HCD_Connect_Callback               0x08000d58   Section        0  usbh_conf.o(i.HAL_HCD_Connect_Callback)
    i.HAL_HCD_Disconnect_Callback            0x08000d60   Section        0  usbh_conf.o(i.HAL_HCD_Disconnect_Callback)
    i.HAL_HCD_GetCurrentFrame                0x08000d68   Section        0  stm32f4xx_hal_hcd.o(i.HAL_HCD_GetCurrentFrame)
    i.HAL_HCD_GetCurrentSpeed                0x08000d6e   Section        0  stm32f4xx_hal_hcd.o(i.HAL_HCD_GetCurrentSpeed)
    i.HAL_HCD_HC_GetURBState                 0x08000d74   Section        0  stm32f4xx_hal_hcd.o(i.HAL_HCD_HC_GetURBState)
    i.HAL_HCD_HC_GetXferCount                0x08000d82   Section        0  stm32f4xx_hal_hcd.o(i.HAL_HCD_HC_GetXferCount)
    i.HAL_HCD_HC_Halt                        0x08000d8e   Section        0  stm32f4xx_hal_hcd.o(i.HAL_HCD_HC_Halt)
    i.HAL_HCD_HC_Init                        0x08000db2   Section        0  stm32f4xx_hal_hcd.o(i.HAL_HCD_HC_Init)
    i.HAL_HCD_HC_NotifyURBChange_Callback    0x08000e06   Section        0  usbh_conf.o(i.HAL_HCD_HC_NotifyURBChange_Callback)
    i.HAL_HCD_HC_SubmitRequest               0x08000e0e   Section        0  stm32f4xx_hal_hcd.o(i.HAL_HCD_HC_SubmitRequest)
    i.HAL_HCD_IRQHandler                     0x08000ec4   Section        0  stm32f4xx_hal_hcd.o(i.HAL_HCD_IRQHandler)
    i.HAL_HCD_Init                           0x08000ff2   Section        0  stm32f4xx_hal_hcd.o(i.HAL_HCD_Init)
    i.HAL_HCD_MspInit                        0x0800104c   Section        0  usbh_conf.o(i.HAL_HCD_MspInit)
    i.HAL_HCD_ResetPort                      0x080010c4   Section        0  stm32f4xx_hal_hcd.o(i.HAL_HCD_ResetPort)
    i.HAL_HCD_SOF_Callback                   0x080010ca   Section        0  usbh_conf.o(i.HAL_HCD_SOF_Callback)
    i.HAL_HCD_Start                          0x080010d2   Section        0  stm32f4xx_hal_hcd.o(i.HAL_HCD_Start)
    i.HAL_HCD_Stop                           0x080010fe   Section        0  stm32f4xx_hal_hcd.o(i.HAL_HCD_Stop)
    i.HAL_IncTick                            0x08001124   Section        0  stm32f4xx_hal.o(i.HAL_IncTick)
    i.HAL_Init                               0x08001134   Section        0  stm32f4xx_hal.o(i.HAL_Init)
    i.HAL_InitTick                           0x08001168   Section        0  stm32f4xx_hal.o(i.HAL_InitTick)
    i.HAL_MspInit                            0x0800118a   Section        0  stm32f4xx_hal_msp.o(i.HAL_MspInit)
    i.HAL_NVIC_EnableIRQ                     0x080011a0   Section        0  stm32f4xx_hal_cortex.o(i.HAL_NVIC_EnableIRQ)
    i.HAL_NVIC_SetPriority                   0x080011b8   Section        0  stm32f4xx_hal_cortex.o(i.HAL_NVIC_SetPriority)
    i.HAL_NVIC_SetPriorityGrouping           0x080011f8   Section        0  stm32f4xx_hal_cortex.o(i.HAL_NVIC_SetPriorityGrouping)
    i.HAL_RCC_ClockConfig                    0x0800121c   Section        0  stm32f4xx_hal_rcc.o(i.HAL_RCC_ClockConfig)
    i.HAL_RCC_GetHCLKFreq                    0x08001428   Section        0  stm32f4xx_hal_rcc.o(i.HAL_RCC_GetHCLKFreq)
    i.HAL_RCC_GetSysClockFreq                0x0800145c   Section        0  stm32f4xx_hal_rcc.o(i.HAL_RCC_GetSysClockFreq)
    i.HAL_RCC_OscConfig                      0x080014cc   Section        0  stm32f4xx_hal_rcc.o(i.HAL_RCC_OscConfig)
    i.HAL_SYSTICK_Config                     0x08001808   Section        0  stm32f4xx_hal_cortex.o(i.HAL_SYSTICK_Config)
    i.HCD_HC_IN_IRQHandler                   0x08001830   Section        0  stm32f4xx_hal_hcd.o(i.HCD_HC_IN_IRQHandler)
    HCD_HC_IN_IRQHandler                     0x08001831   Thumb Code   578  stm32f4xx_hal_hcd.o(i.HCD_HC_IN_IRQHandler)
    i.HCD_HC_OUT_IRQHandler                  0x08001a72   Section        0  stm32f4xx_hal_hcd.o(i.HCD_HC_OUT_IRQHandler)
    HCD_HC_OUT_IRQHandler                    0x08001a73   Thumb Code   564  stm32f4xx_hal_hcd.o(i.HCD_HC_OUT_IRQHandler)
    i.HCD_Port_IRQHandler                    0x08001ca6   Section        0  stm32f4xx_hal_hcd.o(i.HCD_Port_IRQHandler)
    HCD_Port_IRQHandler                      0x08001ca7   Thumb Code   176  stm32f4xx_hal_hcd.o(i.HCD_Port_IRQHandler)
    i.HCD_RXQLVL_IRQHandler                  0x08001d58   Section        0  stm32f4xx_hal_hcd.o(i.HCD_RXQLVL_IRQHandler)
    HCD_RXQLVL_IRQHandler                    0x08001d59   Thumb Code   116  stm32f4xx_hal_hcd.o(i.HCD_RXQLVL_IRQHandler)
    i.MX_ADC1_Init                           0x08001dd0   Section        0  main.o(i.MX_ADC1_Init)
    MX_ADC1_Init                             0x08001dd1   Thumb Code    52  main.o(i.MX_ADC1_Init)
    i.MX_CAN1_Init                           0x08001e0c   Section        0  main.o(i.MX_CAN1_Init)
    MX_CAN1_Init                             0x08001e0d   Thumb Code   126  main.o(i.MX_CAN1_Init)
    i.MX_CAN2_Init                           0x08001e98   Section        0  main.o(i.MX_CAN2_Init)
    MX_CAN2_Init                             0x08001e99   Thumb Code    36  main.o(i.MX_CAN2_Init)
    i.MX_GPIO_Init                           0x08001ec4   Section        0  main.o(i.MX_GPIO_Init)
    MX_GPIO_Init                             0x08001ec5   Thumb Code   376  main.o(i.MX_GPIO_Init)
    i.MX_USB_HOST_Init                       0x08002058   Section        0  usb_host.o(i.MX_USB_HOST_Init)
    i.NVIC_SetPriority                       0x080020b4   Section        0  stm32f4xx_hal_cortex.o(i.NVIC_SetPriority)
    NVIC_SetPriority                         0x080020b5   Thumb Code    32  stm32f4xx_hal_cortex.o(i.NVIC_SetPriority)
    i.OTG_FS_IRQHandler                      0x080020d4   Section        0  stm32f4xx_it.o(i.OTG_FS_IRQHandler)
    i.PTP_BufferFullCallback                 0x080020e0   Section        0  usbh_mtp_ptp.o(i.PTP_BufferFullCallback)
    PTP_BufferFullCallback                   0x080020e1   Thumb Code   112  usbh_mtp_ptp.o(i.PTP_BufferFullCallback)
    i.PTP_DecodeDeviceInfo                   0x08002150   Section        0  usbh_mtp_ptp.o(i.PTP_DecodeDeviceInfo)
    PTP_DecodeDeviceInfo                     0x08002151   Thumb Code   312  usbh_mtp_ptp.o(i.PTP_DecodeDeviceInfo)
    i.PTP_GetArray16                         0x08002288   Section        0  usbh_mtp_ptp.o(i.PTP_GetArray16)
    PTP_GetArray16                           0x08002289   Thumb Code    58  usbh_mtp_ptp.o(i.PTP_GetArray16)
    i.PTP_GetArray32                         0x080022c4   Section        0  usbh_mtp_ptp.o(i.PTP_GetArray32)
    PTP_GetArray32                           0x080022c5   Thumb Code    70  usbh_mtp_ptp.o(i.PTP_GetArray32)
    i.PTP_GetStorageInfo                     0x0800230a   Section        0  usbh_mtp_ptp.o(i.PTP_GetStorageInfo)
    PTP_GetStorageInfo                       0x0800230b   Thumb Code   248  usbh_mtp_ptp.o(i.PTP_GetStorageInfo)
    i.PTP_GetString                          0x08002402   Section        0  usbh_mtp_ptp.o(i.PTP_GetString)
    PTP_GetString                            0x08002403   Thumb Code    36  usbh_mtp_ptp.o(i.PTP_GetString)
    i.ParseCSDescriptors                     0x08002426   Section        0  usbh_audio.o(i.ParseCSDescriptors)
    ParseCSDescriptors                       0x08002427   Thumb Code   166  usbh_audio.o(i.ParseCSDescriptors)
    i.StartDefaultTask                       0x080024cc   Section        0  main.o(i.StartDefaultTask)
    i.SysTick_Handler                        0x080024d8   Section        0  stm32f4xx_it.o(i.SysTick_Handler)
    i.SystemClock_Config                     0x080024e8   Section        0  main.o(i.SystemClock_Config)
    i.SystemInit                             0x0800255c   Section        0  system_stm32f4xx.o(i.SystemInit)
    i.USBH_AC_GetCur                         0x080025b0   Section        0  usbh_audio.o(i.USBH_AC_GetCur)
    USBH_AC_GetCur                           0x080025b1   Thumb Code   130  usbh_audio.o(i.USBH_AC_GetCur)
    i.USBH_AC_GetMax                         0x08002632   Section        0  usbh_audio.o(i.USBH_AC_GetMax)
    USBH_AC_GetMax                           0x08002633   Thumb Code   130  usbh_audio.o(i.USBH_AC_GetMax)
    i.USBH_AC_GetMin                         0x080026b4   Section        0  usbh_audio.o(i.USBH_AC_GetMin)
    USBH_AC_GetMin                           0x080026b5   Thumb Code   130  usbh_audio.o(i.USBH_AC_GetMin)
    i.USBH_AC_GetRes                         0x08002736   Section        0  usbh_audio.o(i.USBH_AC_GetRes)
    USBH_AC_GetRes                           0x08002737   Thumb Code   130  usbh_audio.o(i.USBH_AC_GetRes)
    i.USBH_AUDIO_BufferEmptyCallback         0x080027b8   Section        0  usbh_audio.o(i.USBH_AUDIO_BufferEmptyCallback)
    i.USBH_AUDIO_BuildHeadphonePath          0x080027bc   Section        0  usbh_audio.o(i.USBH_AUDIO_BuildHeadphonePath)
    USBH_AUDIO_BuildHeadphonePath            0x080027bd   Thumb Code   198  usbh_audio.o(i.USBH_AUDIO_BuildHeadphonePath)
    i.USBH_AUDIO_BuildMicrophonePath         0x08002884   Section        0  usbh_audio.o(i.USBH_AUDIO_BuildMicrophonePath)
    USBH_AUDIO_BuildMicrophonePath           0x08002885   Thumb Code   134  usbh_audio.o(i.USBH_AUDIO_BuildMicrophonePath)
    i.USBH_AUDIO_CSRequest                   0x0800290a   Section        0  usbh_audio.o(i.USBH_AUDIO_CSRequest)
    USBH_AUDIO_CSRequest                     0x0800290b   Thumb Code   216  usbh_audio.o(i.USBH_AUDIO_CSRequest)
    i.USBH_AUDIO_ClassRequest                0x080029e2   Section        0  usbh_audio.o(i.USBH_AUDIO_ClassRequest)
    USBH_AUDIO_ClassRequest                  0x080029e3   Thumb Code   296  usbh_audio.o(i.USBH_AUDIO_ClassRequest)
    i.USBH_AUDIO_Control                     0x08002b0a   Section        0  usbh_audio.o(i.USBH_AUDIO_Control)
    USBH_AUDIO_Control                       0x08002b0b   Thumb Code   200  usbh_audio.o(i.USBH_AUDIO_Control)
    i.USBH_AUDIO_FindAudioStreamingIN        0x08002bd2   Section        0  usbh_audio.o(i.USBH_AUDIO_FindAudioStreamingIN)
    USBH_AUDIO_FindAudioStreamingIN          0x08002bd3   Thumb Code   116  usbh_audio.o(i.USBH_AUDIO_FindAudioStreamingIN)
    i.USBH_AUDIO_FindAudioStreamingOUT       0x08002c46   Section        0  usbh_audio.o(i.USBH_AUDIO_FindAudioStreamingOUT)
    USBH_AUDIO_FindAudioStreamingOUT         0x08002c47   Thumb Code   118  usbh_audio.o(i.USBH_AUDIO_FindAudioStreamingOUT)
    i.USBH_AUDIO_FindHIDControl              0x08002cbc   Section        0  usbh_audio.o(i.USBH_AUDIO_FindHIDControl)
    USBH_AUDIO_FindHIDControl                0x08002cbd   Thumb Code   132  usbh_audio.o(i.USBH_AUDIO_FindHIDControl)
    i.USBH_AUDIO_FindLinkedUnit              0x08002d40   Section        0  usbh_audio.o(i.USBH_AUDIO_FindLinkedUnit)
    USBH_AUDIO_FindLinkedUnit                0x08002d41   Thumb Code   224  usbh_audio.o(i.USBH_AUDIO_FindLinkedUnit)
    i.USBH_AUDIO_FrequencySet                0x08002e20   Section        0  usbh_audio.o(i.USBH_AUDIO_FrequencySet)
    i.USBH_AUDIO_InterfaceDeInit             0x08002e22   Section        0  usbh_audio.o(i.USBH_AUDIO_InterfaceDeInit)
    USBH_AUDIO_InterfaceDeInit               0x08002e23   Thumb Code   112  usbh_audio.o(i.USBH_AUDIO_InterfaceDeInit)
    i.USBH_AUDIO_InterfaceInit               0x08002e92   Section        0  usbh_audio.o(i.USBH_AUDIO_InterfaceInit)
    USBH_AUDIO_InterfaceInit                 0x08002e93   Thumb Code   436  usbh_audio.o(i.USBH_AUDIO_InterfaceInit)
    i.USBH_AUDIO_OutputStream                0x08003046   Section        0  usbh_audio.o(i.USBH_AUDIO_OutputStream)
    USBH_AUDIO_OutputStream                  0x08003047   Thumb Code   158  usbh_audio.o(i.USBH_AUDIO_OutputStream)
    i.USBH_AUDIO_ParseCSDescriptors          0x080030e4   Section        0  usbh_audio.o(i.USBH_AUDIO_ParseCSDescriptors)
    USBH_AUDIO_ParseCSDescriptors            0x080030e5   Thumb Code   140  usbh_audio.o(i.USBH_AUDIO_ParseCSDescriptors)
    i.USBH_AUDIO_Process                     0x08003170   Section        0  usbh_audio.o(i.USBH_AUDIO_Process)
    USBH_AUDIO_Process                       0x08003171   Thumb Code    26  usbh_audio.o(i.USBH_AUDIO_Process)
    i.USBH_AUDIO_SOFProcess                  0x0800318a   Section        0  usbh_audio.o(i.USBH_AUDIO_SOFProcess)
    USBH_AUDIO_SOFProcess                    0x0800318b   Thumb Code     4  usbh_audio.o(i.USBH_AUDIO_SOFProcess)
    i.USBH_AUDIO_SetControlAttribute         0x0800318e   Section        0  usbh_audio.o(i.USBH_AUDIO_SetControlAttribute)
    USBH_AUDIO_SetControlAttribute           0x0800318f   Thumb Code   188  usbh_audio.o(i.USBH_AUDIO_SetControlAttribute)
    i.USBH_AUDIO_SetEndpointControls         0x0800324a   Section        0  usbh_audio.o(i.USBH_AUDIO_SetEndpointControls)
    USBH_AUDIO_SetEndpointControls           0x0800324b   Thumb Code    32  usbh_audio.o(i.USBH_AUDIO_SetEndpointControls)
    i.USBH_AUDIO_Transmit                    0x0800326a   Section        0  usbh_audio.o(i.USBH_AUDIO_Transmit)
    USBH_AUDIO_Transmit                      0x0800326b   Thumb Code   226  usbh_audio.o(i.USBH_AUDIO_Transmit)
    i.USBH_AllocPipe                         0x0800334c   Section        0  usbh_pipes.o(i.USBH_AllocPipe)
    i.USBH_BulkReceiveData                   0x08003380   Section        0  usbh_ioreq.o(i.USBH_BulkReceiveData)
    i.USBH_BulkSendData                      0x080033a0   Section        0  usbh_ioreq.o(i.USBH_BulkSendData)
    i.USBH_CDC_ClassRequest                  0x080033c8   Section        0  usbh_cdc.o(i.USBH_CDC_ClassRequest)
    USBH_CDC_ClassRequest                    0x080033c9   Thumb Code    36  usbh_cdc.o(i.USBH_CDC_ClassRequest)
    i.USBH_CDC_InterfaceDeInit               0x080033ec   Section        0  usbh_cdc.o(i.USBH_CDC_InterfaceDeInit)
    USBH_CDC_InterfaceDeInit                 0x080033ed   Thumb Code    94  usbh_cdc.o(i.USBH_CDC_InterfaceDeInit)
    i.USBH_CDC_InterfaceInit                 0x0800344a   Section        0  usbh_cdc.o(i.USBH_CDC_InterfaceInit)
    USBH_CDC_InterfaceInit                   0x0800344b   Thumb Code   308  usbh_cdc.o(i.USBH_CDC_InterfaceInit)
    i.USBH_CDC_LineCodingChanged             0x0800357e   Section        0  usbh_cdc.o(i.USBH_CDC_LineCodingChanged)
    i.USBH_CDC_Process                       0x08003580   Section        0  usbh_cdc.o(i.USBH_CDC_Process)
    USBH_CDC_Process                         0x08003581   Thumb Code   184  usbh_cdc.o(i.USBH_CDC_Process)
    i.USBH_CDC_ReceiveCallback               0x08003638   Section        0  usbh_cdc.o(i.USBH_CDC_ReceiveCallback)
    i.USBH_CDC_SOFProcess                    0x0800363a   Section        0  usbh_cdc.o(i.USBH_CDC_SOFProcess)
    USBH_CDC_SOFProcess                      0x0800363b   Thumb Code     4  usbh_cdc.o(i.USBH_CDC_SOFProcess)
    i.USBH_CDC_TransmitCallback              0x0800363e   Section        0  usbh_cdc.o(i.USBH_CDC_TransmitCallback)
    i.USBH_ClosePipe                         0x08003640   Section        0  usbh_pipes.o(i.USBH_ClosePipe)
    i.USBH_ClrFeature                        0x0800364a   Section        0  usbh_ctlreq.o(i.USBH_ClrFeature)
    i.USBH_CtlReceiveData                    0x08003668   Section        0  usbh_ioreq.o(i.USBH_CtlReceiveData)
    i.USBH_CtlReq                            0x08003686   Section        0  usbh_ctlreq.o(i.USBH_CtlReq)
    i.USBH_CtlSendData                       0x080036d0   Section        0  usbh_ioreq.o(i.USBH_CtlSendData)
    i.USBH_CtlSendSetup                      0x080036f8   Section        0  usbh_ioreq.o(i.USBH_CtlSendSetup)
    i.USBH_Delay                             0x08003716   Section        0  usbh_conf.o(i.USBH_Delay)
    i.USBH_FindInterface                     0x0800371a   Section        0  usbh_core.o(i.USBH_FindInterface)
    i.USBH_FindInterfaceIndex                0x0800375e   Section        0  usbh_core.o(i.USBH_FindInterfaceIndex)
    i.USBH_FreePipe                          0x08003790   Section        0  usbh_pipes.o(i.USBH_FreePipe)
    i.USBH_GetDescriptor                     0x080037a8   Section        0  usbh_ctlreq.o(i.USBH_GetDescriptor)
    i.USBH_GetNextDesc                       0x080037dc   Section        0  usbh_ctlreq.o(i.USBH_GetNextDesc)
    i.USBH_Get_CfgDesc                       0x080037ea   Section        0  usbh_ctlreq.o(i.USBH_Get_CfgDesc)
    i.USBH_Get_DevDesc                       0x08003816   Section        0  usbh_ctlreq.o(i.USBH_Get_DevDesc)
    i.USBH_Get_StringDesc                    0x080038b0   Section        0  usbh_ctlreq.o(i.USBH_Get_StringDesc)
    i.USBH_HID_ClassRequest                  0x080038f8   Section        0  usbh_hid.o(i.USBH_HID_ClassRequest)
    USBH_HID_ClassRequest                    0x080038f9   Thumb Code   172  usbh_hid.o(i.USBH_HID_ClassRequest)
    i.USBH_HID_EventCallback                 0x080039a4   Section        0  usbh_hid.o(i.USBH_HID_EventCallback)
    i.USBH_HID_GetHIDDescriptor              0x080039a6   Section        0  usbh_hid.o(i.USBH_HID_GetHIDDescriptor)
    i.USBH_HID_GetHIDReportDescriptor        0x080039ba   Section        0  usbh_hid.o(i.USBH_HID_GetHIDReportDescriptor)
    i.USBH_HID_GetReport                     0x080039ce   Section        0  usbh_hid.o(i.USBH_HID_GetReport)
    i.USBH_HID_InterfaceDeInit               0x080039f0   Section        0  usbh_hid.o(i.USBH_HID_InterfaceDeInit)
    USBH_HID_InterfaceDeInit                 0x080039f1   Thumb Code    68  usbh_hid.o(i.USBH_HID_InterfaceDeInit)
    i.USBH_HID_InterfaceInit                 0x08003a34   Section        0  usbh_hid.o(i.USBH_HID_InterfaceInit)
    USBH_HID_InterfaceInit                   0x08003a35   Thumb Code   338  usbh_hid.o(i.USBH_HID_InterfaceInit)
    i.USBH_HID_KeybdInit                     0x08003b90   Section        0  usbh_hid_keybd.o(i.USBH_HID_KeybdInit)
    i.USBH_HID_MouseInit                     0x08003be4   Section        0  usbh_hid_mouse.o(i.USBH_HID_MouseInit)
    i.USBH_HID_Process                       0x08003c20   Section        0  usbh_hid.o(i.USBH_HID_Process)
    USBH_HID_Process                         0x08003c21   Thumb Code   202  usbh_hid.o(i.USBH_HID_Process)
    i.USBH_HID_SOFProcess                    0x08003cea   Section        0  usbh_hid.o(i.USBH_HID_SOFProcess)
    USBH_HID_SOFProcess                      0x08003ceb   Thumb Code    48  usbh_hid.o(i.USBH_HID_SOFProcess)
    i.USBH_HID_SetIdle                       0x08003d1a   Section        0  usbh_hid.o(i.USBH_HID_SetIdle)
    i.USBH_HID_SetProtocol                   0x08003d34   Section        0  usbh_hid.o(i.USBH_HID_SetProtocol)
    i.USBH_HandleControl                     0x08003d52   Section        0  usbh_ctlreq.o(i.USBH_HandleControl)
    USBH_HandleControl                       0x08003d53   Thumb Code   396  usbh_ctlreq.o(i.USBH_HandleControl)
    i.USBH_HandleEnum                        0x08003ede   Section        0  usbh_core.o(i.USBH_HandleEnum)
    USBH_HandleEnum                          0x08003edf   Thumb Code   278  usbh_core.o(i.USBH_HandleEnum)
    i.USBH_Init                              0x08003ff4   Section        0  usbh_core.o(i.USBH_Init)
    i.USBH_InterruptReceiveData              0x0800405c   Section        0  usbh_ioreq.o(i.USBH_InterruptReceiveData)
    i.USBH_IsocSendData                      0x0800407c   Section        0  usbh_ioreq.o(i.USBH_IsocSendData)
    i.USBH_LL_ClosePipe                      0x0800409e   Section        0  usbh_conf.o(i.USBH_LL_ClosePipe)
    i.USBH_LL_Connect                        0x080040ac   Section        0  usbh_core.o(i.USBH_LL_Connect)
    i.USBH_LL_Disconnect                     0x080040e4   Section        0  usbh_core.o(i.USBH_LL_Disconnect)
    i.USBH_LL_DriverVBUS                     0x08004128   Section        0  usbh_conf.o(i.USBH_LL_DriverVBUS)
    i.USBH_LL_GetLastXferSize                0x08004134   Section        0  usbh_conf.o(i.USBH_LL_GetLastXferSize)
    i.USBH_LL_GetSpeed                       0x0800413c   Section        0  usbh_conf.o(i.USBH_LL_GetSpeed)
    i.USBH_LL_GetToggle                      0x0800415e   Section        0  usbh_conf.o(i.USBH_LL_GetToggle)
    i.USBH_LL_GetURBState                    0x0800417c   Section        0  usbh_conf.o(i.USBH_LL_GetURBState)
    i.USBH_LL_IncTimer                       0x08004184   Section        0  usbh_core.o(i.USBH_LL_IncTimer)
    i.USBH_LL_Init                           0x080041a4   Section        0  usbh_conf.o(i.USBH_LL_Init)
    i.USBH_LL_NotifyURBChange                0x080041ec   Section        0  usbh_core.o(i.USBH_LL_NotifyURBChange)
    i.USBH_LL_OpenPipe                       0x080041fe   Section        0  usbh_conf.o(i.USBH_LL_OpenPipe)
    i.USBH_LL_ResetPort                      0x08004216   Section        0  usbh_conf.o(i.USBH_LL_ResetPort)
    i.USBH_LL_SetTimer                       0x08004224   Section        0  usbh_core.o(i.USBH_LL_SetTimer)
    i.USBH_LL_SetToggle                      0x0800422a   Section        0  usbh_conf.o(i.USBH_LL_SetToggle)
    i.USBH_LL_Start                          0x0800424a   Section        0  usbh_conf.o(i.USBH_LL_Start)
    i.USBH_LL_Stop                           0x08004258   Section        0  usbh_conf.o(i.USBH_LL_Stop)
    i.USBH_LL_SubmitURB                      0x08004266   Section        0  usbh_conf.o(i.USBH_LL_SubmitURB)
    i.USBH_MSC_BOT_Abort                     0x08004286   Section        0  usbh_msc_bot.o(i.USBH_MSC_BOT_Abort)
    USBH_MSC_BOT_Abort                       0x08004287   Thumb Code    30  usbh_msc_bot.o(i.USBH_MSC_BOT_Abort)
    i.USBH_MSC_BOT_Init                      0x080042a4   Section        0  usbh_msc_bot.o(i.USBH_MSC_BOT_Init)
    i.USBH_MSC_BOT_Process                   0x080042c8   Section        0  usbh_msc_bot.o(i.USBH_MSC_BOT_Process)
    i.USBH_MSC_BOT_REQ_GetMaxLUN             0x080044c4   Section        0  usbh_msc_bot.o(i.USBH_MSC_BOT_REQ_GetMaxLUN)
    i.USBH_MSC_BOT_REQ_Reset                 0x080044da   Section        0  usbh_msc_bot.o(i.USBH_MSC_BOT_REQ_Reset)
    i.USBH_MSC_ClassRequest                  0x080044f0   Section        0  usbh_msc.o(i.USBH_MSC_ClassRequest)
    USBH_MSC_ClassRequest                    0x080044f1   Thumb Code   108  usbh_msc.o(i.USBH_MSC_ClassRequest)
    i.USBH_MSC_InterfaceDeInit               0x0800455c   Section        0  usbh_msc.o(i.USBH_MSC_InterfaceDeInit)
    USBH_MSC_InterfaceDeInit                 0x0800455d   Thumb Code    74  usbh_msc.o(i.USBH_MSC_InterfaceDeInit)
    i.USBH_MSC_InterfaceInit                 0x080045a6   Section        0  usbh_msc.o(i.USBH_MSC_InterfaceInit)
    USBH_MSC_InterfaceInit                   0x080045a7   Thumb Code   332  usbh_msc.o(i.USBH_MSC_InterfaceInit)
    i.USBH_MSC_Process                       0x080046f2   Section        0  usbh_msc.o(i.USBH_MSC_Process)
    USBH_MSC_Process                         0x080046f3   Thumb Code   680  usbh_msc.o(i.USBH_MSC_Process)
    i.USBH_MSC_SCSI_Inquiry                  0x0800499a   Section        0  usbh_msc_scsi.o(i.USBH_MSC_SCSI_Inquiry)
    i.USBH_MSC_SCSI_ReadCapacity             0x08004a5a   Section        0  usbh_msc_scsi.o(i.USBH_MSC_SCSI_ReadCapacity)
    i.USBH_MSC_SCSI_RequestSense             0x08004ad4   Section        0  usbh_msc_scsi.o(i.USBH_MSC_SCSI_RequestSense)
    i.USBH_MSC_SCSI_TestUnitReady            0x08004b66   Section        0  usbh_msc_scsi.o(i.USBH_MSC_SCSI_TestUnitReady)
    i.USBH_MSC_SOFProcess                    0x08004bb2   Section        0  usbh_msc.o(i.USBH_MSC_SOFProcess)
    USBH_MSC_SOFProcess                      0x08004bb3   Thumb Code     4  usbh_msc.o(i.USBH_MSC_SOFProcess)
    i.USBH_MTP_ClassRequest                  0x08004bb6   Section        0  usbh_mtp.o(i.USBH_MTP_ClassRequest)
    USBH_MTP_ClassRequest                    0x08004bb7   Thumb Code    18  usbh_mtp.o(i.USBH_MTP_ClassRequest)
    i.USBH_MTP_Events                        0x08004bc8   Section        0  usbh_mtp.o(i.USBH_MTP_Events)
    USBH_MTP_Events                          0x08004bc9   Thumb Code   164  usbh_mtp.o(i.USBH_MTP_Events)
    i.USBH_MTP_EventsCallback                0x08004c6c   Section        0  usbh_mtp.o(i.USBH_MTP_EventsCallback)
    i.USBH_MTP_InterfaceDeInit               0x08004c6e   Section        0  usbh_mtp.o(i.USBH_MTP_InterfaceDeInit)
    USBH_MTP_InterfaceDeInit                 0x08004c6f   Thumb Code   116  usbh_mtp.o(i.USBH_MTP_InterfaceDeInit)
    i.USBH_MTP_InterfaceInit                 0x08004ce4   Section        0  usbh_mtp.o(i.USBH_MTP_InterfaceInit)
    USBH_MTP_InterfaceInit                   0x08004ce5   Thumb Code   540  usbh_mtp.o(i.USBH_MTP_InterfaceInit)
    i.USBH_MTP_Process                       0x08004f00   Section        0  usbh_mtp.o(i.USBH_MTP_Process)
    USBH_MTP_Process                         0x08004f01   Thumb Code   252  usbh_mtp.o(i.USBH_MTP_Process)
    i.USBH_MTP_SOFProcess                    0x08004ffc   Section        0  usbh_mtp.o(i.USBH_MTP_SOFProcess)
    USBH_MTP_SOFProcess                      0x08004ffd   Thumb Code     4  usbh_mtp.o(i.USBH_MTP_SOFProcess)
    i.USBH_OpenPipe                          0x08005000   Section        0  usbh_pipes.o(i.USBH_OpenPipe)
    i.USBH_PTP_GetDeviceInfo                 0x08005014   Section        0  usbh_mtp_ptp.o(i.USBH_PTP_GetDeviceInfo)
    i.USBH_PTP_GetResponse                   0x080050ae   Section        0  usbh_mtp_ptp.o(i.USBH_PTP_GetResponse)
    i.USBH_PTP_GetStorageIds                 0x080050e4   Section        0  usbh_mtp_ptp.o(i.USBH_PTP_GetStorageIds)
    i.USBH_PTP_GetStorageInfo                0x0800518c   Section        0  usbh_mtp_ptp.o(i.USBH_PTP_GetStorageInfo)
    i.USBH_PTP_Init                          0x08005232   Section        0  usbh_mtp_ptp.o(i.USBH_PTP_Init)
    i.USBH_PTP_OpenSession                   0x0800524c   Section        0  usbh_mtp_ptp.o(i.USBH_PTP_OpenSession)
    i.USBH_PTP_Process                       0x080052c8   Section        0  usbh_mtp_ptp.o(i.USBH_PTP_Process)
    i.USBH_PTP_SendRequest                   0x08005514   Section        0  usbh_mtp_ptp.o(i.USBH_PTP_SendRequest)
    i.USBH_ParseCfgDesc                      0x0800556a   Section        0  usbh_ctlreq.o(i.USBH_ParseCfgDesc)
    USBH_ParseCfgDesc                        0x0800556b   Thumb Code   232  usbh_ctlreq.o(i.USBH_ParseCfgDesc)
    i.USBH_Process                           0x08005652   Section        0  usbh_core.o(i.USBH_Process)
    i.USBH_Process_OS                        0x080057d2   Section        0  usbh_core.o(i.USBH_Process_OS)
    USBH_Process_OS                          0x080057d3   Thumb Code    34  usbh_core.o(i.USBH_Process_OS)
    i.USBH_RegisterClass                     0x080057f4   Section        0  usbh_core.o(i.USBH_RegisterClass)
    i.USBH_SelectInterface                   0x08005818   Section        0  usbh_core.o(i.USBH_SelectInterface)
    i.USBH_SetAddress                        0x0800582e   Section        0  usbh_ctlreq.o(i.USBH_SetAddress)
    i.USBH_SetCfg                            0x0800584a   Section        0  usbh_ctlreq.o(i.USBH_SetCfg)
    i.USBH_SetInterface                      0x08005866   Section        0  usbh_ctlreq.o(i.USBH_SetInterface)
    i.USBH_Start                             0x08005882   Section        0  usbh_core.o(i.USBH_Start)
    i.USBH_UserProcess                       0x08005898   Section        0  usb_host.o(i.USBH_UserProcess)
    USBH_UserProcess                         0x08005899   Thumb Code    28  usb_host.o(i.USBH_UserProcess)
    i.USB_CoreInit                           0x080058b8   Section        0  stm32f4xx_ll_usb.o(i.USB_CoreInit)
    i.USB_CoreReset                          0x08005924   Section        0  stm32f4xx_ll_usb.o(i.USB_CoreReset)
    USB_CoreReset                            0x08005925   Thumb Code    50  stm32f4xx_ll_usb.o(i.USB_CoreReset)
    i.USB_DisableGlobalInt                   0x0800595c   Section        0  stm32f4xx_ll_usb.o(i.USB_DisableGlobalInt)
    i.USB_DoPing                             0x08005968   Section        0  stm32f4xx_ll_usb.o(i.USB_DoPing)
    i.USB_DriveVbus                          0x080059bc   Section        0  stm32f4xx_ll_usb.o(i.USB_DriveVbus)
    i.USB_EnableGlobalInt                    0x080059e8   Section        0  stm32f4xx_ll_usb.o(i.USB_EnableGlobalInt)
    i.USB_FlushRxFifo                        0x080059f4   Section        0  stm32f4xx_ll_usb.o(i.USB_FlushRxFifo)
    i.USB_FlushTxFifo                        0x08005a14   Section        0  stm32f4xx_ll_usb.o(i.USB_FlushTxFifo)
    i.USB_GetCurrentFrame                    0x08005a38   Section        0  stm32f4xx_ll_usb.o(i.USB_GetCurrentFrame)
    i.USB_GetHostSpeed                       0x08005a40   Section        0  stm32f4xx_ll_usb.o(i.USB_GetHostSpeed)
    i.USB_GetMode                            0x08005a4e   Section        0  stm32f4xx_ll_usb.o(i.USB_GetMode)
    i.USB_HC_Halt                            0x08005a56   Section        0  stm32f4xx_ll_usb.o(i.USB_HC_Halt)
    i.USB_HC_Init                            0x08005bd0   Section        0  stm32f4xx_ll_usb.o(i.USB_HC_Init)
    i.USB_HC_ReadInterrupt                   0x08005cba   Section        0  stm32f4xx_ll_usb.o(i.USB_HC_ReadInterrupt)
    i.USB_HC_StartXfer                       0x08005cc8   Section        0  stm32f4xx_ll_usb.o(i.USB_HC_StartXfer)
    i.USB_HostInit                           0x08005e58   Section        0  stm32f4xx_ll_usb.o(i.USB_HostInit)
    i.USB_InitFSLSPClkSel                    0x08005f2c   Section        0  stm32f4xx_ll_usb.o(i.USB_InitFSLSPClkSel)
    i.USB_ReadInterrupts                     0x08005f62   Section        0  stm32f4xx_ll_usb.o(i.USB_ReadInterrupts)
    i.USB_ReadPacket                         0x08005f6a   Section        0  stm32f4xx_ll_usb.o(i.USB_ReadPacket)
    i.USB_ResetPort                          0x08005f8a   Section        0  stm32f4xx_ll_usb.o(i.USB_ResetPort)
    i.USB_SetCurrentMode                     0x08005fb6   Section        0  stm32f4xx_ll_usb.o(i.USB_SetCurrentMode)
    i.USB_StopHost                           0x08005fe2   Section        0  stm32f4xx_ll_usb.o(i.USB_StopHost)
    i.USB_WritePacket                        0x08006094   Section        0  stm32f4xx_ll_usb.o(i.USB_WritePacket)
    i.__scatterload_copy                     0x080060bc   Section       14  handlers.o(i.__scatterload_copy)
    i.__scatterload_null                     0x080060ca   Section        2  handlers.o(i.__scatterload_null)
    i.__scatterload_zeroinit                 0x080060cc   Section       14  handlers.o(i.__scatterload_zeroinit)
    i.fifo_init                              0x080060da   Section        0  usbh_hid.o(i.fifo_init)
    i.fifo_write                             0x080060e8   Section        0  usbh_hid.o(i.fifo_write)
    i.free                                   0x08006138   Section        0  malloc.o(i.free)
    i.inHandlerMode                          0x08006188   Section        0  cmsis_os.o(i.inHandlerMode)
    inHandlerMode                            0x08006189   Thumb Code    12  cmsis_os.o(i.inHandlerMode)
    i.main                                   0x08006194   Section        0  main.o(i.main)
    i.makeFreeRtosPriority                   0x080061fc   Section        0  cmsis_os.o(i.makeFreeRtosPriority)
    makeFreeRtosPriority                     0x080061fd   Thumb Code    12  cmsis_os.o(i.makeFreeRtosPriority)
    i.malloc                                 0x08006208   Section        0  malloc.o(i.malloc)
    i.osDelay                                0x08006274   Section        0  cmsis_os.o(i.osDelay)
    i.osKernelStart                          0x08006282   Section        0  cmsis_os.o(i.osKernelStart)
    i.osMessageCreate                        0x0800628c   Section        0  cmsis_os.o(i.osMessageCreate)
    i.osMessageGet                           0x08006298   Section        0  cmsis_os.o(i.osMessageGet)
    i.osMessagePut                           0x08006324   Section        0  cmsis_os.o(i.osMessagePut)
    i.osSystickHandler                       0x08006378   Section        0  cmsis_os.o(i.osSystickHandler)
    i.osThreadCreate                         0x0800638c   Section        0  cmsis_os.o(i.osThreadCreate)
    i.prvAddCurrentTaskToDelayedList         0x080063c4   Section        0  tasks.o(i.prvAddCurrentTaskToDelayedList)
    prvAddCurrentTaskToDelayedList           0x080063c5   Thumb Code    48  tasks.o(i.prvAddCurrentTaskToDelayedList)
    i.prvCheckTasksWaitingTermination        0x080063f8   Section        0  tasks.o(i.prvCheckTasksWaitingTermination)
    prvCheckTasksWaitingTermination          0x080063f9   Thumb Code    76  tasks.o(i.prvCheckTasksWaitingTermination)
    i.prvCopyDataFromQueue                   0x0800644c   Section        0  queue.o(i.prvCopyDataFromQueue)
    prvCopyDataFromQueue                     0x0800644d   Thumb Code    38  queue.o(i.prvCopyDataFromQueue)
    i.prvCopyDataToQueue                     0x08006472   Section        0  queue.o(i.prvCopyDataToQueue)
    prvCopyDataToQueue                       0x08006473   Thumb Code   110  queue.o(i.prvCopyDataToQueue)
    i.prvHeapInit                            0x080064e0   Section        0  heap_4.o(i.prvHeapInit)
    prvHeapInit                              0x080064e1   Thumb Code    66  heap_4.o(i.prvHeapInit)
    i.prvIdleTask                            0x0800652c   Section        0  tasks.o(i.prvIdleTask)
    prvIdleTask                              0x0800652d   Thumb Code    20  tasks.o(i.prvIdleTask)
    i.prvInsertBlockIntoFreeList             0x08006544   Section        0  heap_4.o(i.prvInsertBlockIntoFreeList)
    prvInsertBlockIntoFreeList               0x08006545   Thumb Code    72  heap_4.o(i.prvInsertBlockIntoFreeList)
    i.prvResetNextTaskUnblockTime            0x08006590   Section        0  tasks.o(i.prvResetNextTaskUnblockTime)
    prvResetNextTaskUnblockTime              0x08006591   Thumb Code    26  tasks.o(i.prvResetNextTaskUnblockTime)
    i.prvTaskExitError                       0x080065b0   Section        0  port.o(i.prvTaskExitError)
    prvTaskExitError                         0x080065b1   Thumb Code    20  port.o(i.prvTaskExitError)
    i.prvUnlockQueue                         0x080065c8   Section        0  queue.o(i.prvUnlockQueue)
    prvUnlockQueue                           0x080065c9   Thumb Code   100  queue.o(i.prvUnlockQueue)
    i.pvPortMalloc                           0x0800662c   Section        0  heap_4.o(i.pvPortMalloc)
    i.pvTaskIncrementMutexHeldCount          0x080066e8   Section        0  tasks.o(i.pvTaskIncrementMutexHeldCount)
    i.pxPortInitialiseStack                  0x08006700   Section        0  port.o(i.pxPortInitialiseStack)
    i.uxListRemove                           0x08006728   Section        0  list.o(i.uxListRemove)
    i.vListInitialise                        0x0800674c   Section        0  list.o(i.vListInitialise)
    i.vListInitialiseItem                    0x08006762   Section        0  list.o(i.vListInitialiseItem)
    i.vListInsert                            0x08006768   Section        0  list.o(i.vListInsert)
    i.vListInsertEnd                         0x08006798   Section        0  list.o(i.vListInsertEnd)
    i.vPortEnterCritical                     0x080067b0   Section        0  port.o(i.vPortEnterCritical)
    i.vPortExitCritical                      0x080067e4   Section        0  port.o(i.vPortExitCritical)
    i.vPortFree                              0x08006808   Section        0  heap_4.o(i.vPortFree)
    i.vPortSetupTimerInterrupt               0x08006850   Section        0  port.o(i.vPortSetupTimerInterrupt)
    i.vPortValidateInterruptPriority         0x08006870   Section        0  port.o(i.vPortValidateInterruptPriority)
    i.vPortYield                             0x080068b0   Section        0  port.o(i.vPortYield)
    i.vTaskDelay                             0x080068c8   Section        0  tasks.o(i.vTaskDelay)
    i.vTaskMissedYield                       0x08006918   Section        0  tasks.o(i.vTaskMissedYield)
    i.vTaskPlaceOnEventList                  0x08006924   Section        0  tasks.o(i.vTaskPlaceOnEventList)
    i.vTaskPriorityInherit                   0x0800697c   Section        0  tasks.o(i.vTaskPriorityInherit)
    i.vTaskSetTimeOutState                   0x08006a00   Section        0  tasks.o(i.vTaskSetTimeOutState)
    i.vTaskStartScheduler                    0x08006a1c   Section        0  tasks.o(i.vTaskStartScheduler)
    i.vTaskSuspendAll                        0x08006a68   Section        0  tasks.o(i.vTaskSuspendAll)
    i.vTaskSwitchContext                     0x08006a78   Section        0  tasks.o(i.vTaskSwitchContext)
    i.vTask_ControlLamps                     0x08006acc   Section        0  main.o(i.vTask_ControlLamps)
    i.xPortStartScheduler                    0x08006c04   Section        0  port.o(i.xPortStartScheduler)
    i.xPortSysTickHandler                    0x08006c88   Section        0  port.o(i.xPortSysTickHandler)
    i.xQueueGenericCreate                    0x08006cac   Section        0  queue.o(i.xQueueGenericCreate)
    i.xQueueGenericReceive                   0x08006cf4   Section        0  queue.o(i.xQueueGenericReceive)
    i.xQueueGenericReset                     0x08006e22   Section        0  queue.o(i.xQueueGenericReset)
    i.xQueueGenericSend                      0x08006e8c   Section        0  queue.o(i.xQueueGenericSend)
    i.xQueueGenericSendFromISR               0x08006fa0   Section        0  queue.o(i.xQueueGenericSendFromISR)
    i.xQueueReceiveFromISR                   0x08007032   Section        0  queue.o(i.xQueueReceiveFromISR)
    i.xTaskCheckForTimeOut                   0x080070a8   Section        0  tasks.o(i.xTaskCheckForTimeOut)
    i.xTaskGenericCreate                     0x08007100   Section        0  tasks.o(i.xTaskGenericCreate)
    i.xTaskGetSchedulerState                 0x08007284   Section        0  tasks.o(i.xTaskGetSchedulerState)
    i.xTaskIncrementTick                     0x080072a0   Section        0  tasks.o(i.xTaskIncrementTick)
    i.xTaskPriorityDisinherit                0x08007360   Section        0  tasks.o(i.xTaskPriorityDisinherit)
    i.xTaskRemoveFromEventList               0x080073d8   Section        0  tasks.o(i.xTaskRemoveFromEventList)
    i.xTaskResumeAll                         0x08007444   Section        0  tasks.o(i.xTaskResumeAll)
    .constdata                               0x080074f0   Section       28  usbh_core.o(.constdata)
    .constdata                               0x0800750c   Section       16  stm32f4xx_hal_rcc.o(.constdata)
    .constdata                               0x0800751c   Section       20  main.o(.constdata)
    .conststring                             0x08007530   Section        4  usbh_hid.o(.conststring)
    .conststring                             0x08007534   Section        4  usbh_mtp.o(.conststring)
    .conststring                             0x08007538   Section        4  usbh_cdc.o(.conststring)
    .conststring                             0x0800753c   Section        4  usbh_msc.o(.conststring)
    .conststring                             0x08007540   Section       12  usbh_core.o(.conststring)
    .conststring                             0x0800754c   Section        6  usbh_audio.o(.conststring)
    .conststring                             0x08007554   Section       12  main.o(.conststring)
    .data                                    0x20000000   Section       32  usbh_hid.o(.data)
    .data                                    0x20000020   Section        9  usbh_hid_mouse.o(.data)
    .data                                    0x2000002c   Section       32  usbh_mtp.o(.data)
    .data                                    0x2000004c   Section       32  usbh_cdc.o(.data)
    .data                                    0x2000006c   Section       32  usbh_msc.o(.data)
    .data                                    0x2000008c   Section        8  usbh_hid_keybd.o(.data)
    .data                                    0x20000094   Section       32  usbh_audio.o(.data)
    .data                                    0x200000b4   Section        4  stm32f4xx_hal.o(.data)
    uwTick                                   0x200000b4   Data           4  stm32f4xx_hal.o(.data)
    .data                                    0x200000b8   Section       12  port.o(.data)
    ucMaxSysCallPriority                     0x200000b8   Data           1  port.o(.data)
    uxCriticalNesting                        0x200000bc   Data           4  port.o(.data)
    ulMaxPRIGROUPValue                       0x200000c0   Data           4  port.o(.data)
    .data                                    0x200000c4   Section       56  tasks.o(.data)
    uxTasksDeleted                           0x200000c8   Data           4  tasks.o(.data)
    uxCurrentNumberOfTasks                   0x200000cc   Data           4  tasks.o(.data)
    xTickCount                               0x200000d0   Data           4  tasks.o(.data)
    uxTopReadyPriority                       0x200000d4   Data           4  tasks.o(.data)
    xSchedulerRunning                        0x200000d8   Data           4  tasks.o(.data)
    uxPendedTicks                            0x200000dc   Data           4  tasks.o(.data)
    xYieldPending                            0x200000e0   Data           4  tasks.o(.data)
    xNumOfOverflows                          0x200000e4   Data           4  tasks.o(.data)
    uxTaskNumber                             0x200000e8   Data           4  tasks.o(.data)
    xNextTaskUnblockTime                     0x200000ec   Data           4  tasks.o(.data)
    uxSchedulerSuspended                     0x200000f0   Data           4  tasks.o(.data)
    pxDelayedTaskList                        0x200000f4   Data           4  tasks.o(.data)
    pxOverflowDelayedTaskList                0x200000f8   Data           4  tasks.o(.data)
    .data                                    0x200000fc   Section       24  heap_4.o(.data)
    pxEnd                                    0x200000fc   Data           4  heap_4.o(.data)
    xFreeBytesRemaining                      0x20000100   Data           4  heap_4.o(.data)
    xMinimumEverFreeBytesRemaining           0x20000104   Data           4  heap_4.o(.data)
    xBlockAllocatedBit                       0x20000108   Data           4  heap_4.o(.data)
    xStart                                   0x2000010c   Data           8  heap_4.o(.data)
    .data                                    0x20000114   Section       20  system_stm32f4xx.o(.data)
    .data                                    0x20000128   Section        4  main.o(.data)
    .data                                    0x2000012c   Section        1  usb_host.o(.data)
    .data                                    0x20000130   Section        4  mvars.o(.data)
    .data                                    0x20000134   Section        4  mvars.o(.data)
    .bss                                     0x20000138   Section       15  usbh_hid_keybd.o(.bss)
    .bss                                     0x20000148   Section      240  tasks.o(.bss)
    pxReadyTasksLists                        0x20000148   Data         140  tasks.o(.bss)
    xDelayedTaskList1                        0x200001d4   Data          20  tasks.o(.bss)
    xDelayedTaskList2                        0x200001e8   Data          20  tasks.o(.bss)
    xPendingReadyList                        0x200001fc   Data          20  tasks.o(.bss)
    xTasksWaitingTermination                 0x20000210   Data          20  tasks.o(.bss)
    xSuspendedTaskList                       0x20000224   Data          20  tasks.o(.bss)
    .bss                                     0x20000238   Section    15360  heap_4.o(.bss)
    ucHeap                                   0x20000238   Data       15360  heap_4.o(.bss)
    .bss                                     0x20003e38   Section      236  main.o(.bss)
    RxMessage                                0x20003e38   Data          40  main.o(.bss)
    .bss                                     0x20003f24   Section     1440  usb_host.o(.bss)
    .bss                                     0x200044c4   Section      660  usbh_conf.o(.bss)
    HEAP                                     0x20004758   Section      512  startup_stm32f407xx.o(HEAP)
    STACK                                    0x20004958   Section     1024  startup_stm32f407xx.o(STACK)

    Global Symbols

    Symbol Name                              Value     Ov Type        Size  Object(Section)

    BuildAttributes$$THM_ISAv4$E$P$D$K$B$S$7EM$VFPi3$EXTD16$VFPS$VFMA$PE$A:L22UL41UL21$X:L11$S22US41US21$IEEE1$IW$USESV6$~STKCKD$USESV7$~SHL$OSPACE$EBA8$MICROLIB$REQ8$PRES8$EABIv2 0x00000000   Number         0  anon$$obj.o ABSOLUTE
    __ARM_use_no_argv                        0x00000000   Number         0  main.o ABSOLUTE
    __cpp_initialize__aeabi_                  - Undefined Weak Reference
    __cxa_finalize                            - Undefined Weak Reference
    _clock_init                               - Undefined Weak Reference
    _microlib_exit                            - Undefined Weak Reference
    __Vectors_Size                           0x00000188   Number         0  startup_stm32f407xx.o ABSOLUTE
    __Vectors                                0x08000000   Data           4  startup_stm32f407xx.o(RESET)
    __Vectors_End                            0x08000188   Data           0  startup_stm32f407xx.o(RESET)
    __main                                   0x08000189   Thumb Code     0  entry.o(.ARM.Collect$$$$00000000)
    _main_stk                                0x08000189   Thumb Code     0  entry2.o(.ARM.Collect$$$$00000001)
    _main_scatterload                        0x0800018d   Thumb Code     0  entry5.o(.ARM.Collect$$$$00000004)
    __main_after_scatterload                 0x08000191   Thumb Code     0  entry5.o(.ARM.Collect$$$$00000004)
    _main_clock                              0x08000191   Thumb Code     0  entry7b.o(.ARM.Collect$$$$00000008)
    _main_cpp_init                           0x08000191   Thumb Code     0  entry8b.o(.ARM.Collect$$$$0000000A)
    _main_init                               0x08000191   Thumb Code     0  entry9a.o(.ARM.Collect$$$$0000000B)
    __rt_final_cpp                           0x08000199   Thumb Code     0  entry10a.o(.ARM.Collect$$$$0000000D)
    __rt_final_exit                          0x08000199   Thumb Code     0  entry11a.o(.ARM.Collect$$$$0000000F)
    SVC_Handler                              0x0800019d   Thumb Code    28  port.o(.emb_text)
    __asm___6_port_c_39a90d8d__prvStartFirstTask 0x080001bd   Thumb Code    28  port.o(.emb_text)
    __asm___6_port_c_39a90d8d__prvEnableVFP  0x080001dd   Thumb Code    16  port.o(.emb_text)
    PendSV_Handler                           0x080001f1   Thumb Code    84  port.o(.emb_text)
    ulPortSetInterruptMask                   0x08000249   Thumb Code    14  port.o(.emb_text)
    vPortClearInterruptMask                  0x08000257   Thumb Code     6  port.o(.emb_text)
    vPortGetIPSR                             0x0800025d   Thumb Code     6  port.o(.emb_text)
    Reset_Handler                            0x08000265   Thumb Code     8  startup_stm32f407xx.o(.text)
    NMI_Handler                              0x0800026d   Thumb Code     2  startup_stm32f407xx.o(.text)
    HardFault_Handler                        0x0800026f   Thumb Code     2  startup_stm32f407xx.o(.text)
    MemManage_Handler                        0x08000271   Thumb Code     2  startup_stm32f407xx.o(.text)
    BusFault_Handler                         0x08000273   Thumb Code     2  startup_stm32f407xx.o(.text)
    UsageFault_Handler                       0x08000275   Thumb Code     2  startup_stm32f407xx.o(.text)
    DebugMon_Handler                         0x08000279   Thumb Code     2  startup_stm32f407xx.o(.text)
    ADC_IRQHandler                           0x0800027f   Thumb Code     0  startup_stm32f407xx.o(.text)
    CAN1_RX1_IRQHandler                      0x0800027f   Thumb Code     0  startup_stm32f407xx.o(.text)
    CAN1_SCE_IRQHandler                      0x0800027f   Thumb Code     0  startup_stm32f407xx.o(.text)
    CAN1_TX_IRQHandler                       0x0800027f   Thumb Code     0  startup_stm32f407xx.o(.text)
    CAN2_RX0_IRQHandler                      0x0800027f   Thumb Code     0  startup_stm32f407xx.o(.text)
    CAN2_RX1_IRQHandler                      0x0800027f   Thumb Code     0  startup_stm32f407xx.o(.text)
    CAN2_SCE_IRQHandler                      0x0800027f   Thumb Code     0  startup_stm32f407xx.o(.text)
    CAN2_TX_IRQHandler                       0x0800027f   Thumb Code     0  startup_stm32f407xx.o(.text)
    DCMI_IRQHandler                          0x0800027f   Thumb Code     0  startup_stm32f407xx.o(.text)
    DMA1_Stream0_IRQHandler                  0x0800027f   Thumb Code     0  startup_stm32f407xx.o(.text)
    DMA1_Stream1_IRQHandler                  0x0800027f   Thumb Code     0  startup_stm32f407xx.o(.text)
    DMA1_Stream2_IRQHandler                  0x0800027f   Thumb Code     0  startup_stm32f407xx.o(.text)
    DMA1_Stream3_IRQHandler                  0x0800027f   Thumb Code     0  startup_stm32f407xx.o(.text)
    DMA1_Stream4_IRQHandler                  0x0800027f   Thumb Code     0  startup_stm32f407xx.o(.text)
    DMA1_Stream5_IRQHandler                  0x0800027f   Thumb Code     0  startup_stm32f407xx.o(.text)
    DMA1_Stream6_IRQHandler                  0x0800027f   Thumb Code     0  startup_stm32f407xx.o(.text)
    DMA1_Stream7_IRQHandler                  0x0800027f   Thumb Code     0  startup_stm32f407xx.o(.text)
    DMA2_Stream0_IRQHandler                  0x0800027f   Thumb Code     0  startup_stm32f407xx.o(.text)
    DMA2_Stream1_IRQHandler                  0x0800027f   Thumb Code     0  startup_stm32f407xx.o(.text)
    DMA2_Stream2_IRQHandler                  0x0800027f   Thumb Code     0  startup_stm32f407xx.o(.text)
    DMA2_Stream3_IRQHandler                  0x0800027f   Thumb Code     0  startup_stm32f407xx.o(.text)
    DMA2_Stream4_IRQHandler                  0x0800027f   Thumb Code     0  startup_stm32f407xx.o(.text)
    DMA2_Stream5_IRQHandler                  0x0800027f   Thumb Code     0  startup_stm32f407xx.o(.text)
    DMA2_Stream6_IRQHandler                  0x0800027f   Thumb Code     0  startup_stm32f407xx.o(.text)
    DMA2_Stream7_IRQHandler                  0x0800027f   Thumb Code     0  startup_stm32f407xx.o(.text)
    ETH_IRQHandler                           0x0800027f   Thumb Code     0  startup_stm32f407xx.o(.text)
    ETH_WKUP_IRQHandler                      0x0800027f   Thumb Code     0  startup_stm32f407xx.o(.text)
    EXTI0_IRQHandler                         0x0800027f   Thumb Code     0  startup_stm32f407xx.o(.text)
    EXTI15_10_IRQHandler                     0x0800027f   Thumb Code     0  startup_stm32f407xx.o(.text)
    EXTI1_IRQHandler                         0x0800027f   Thumb Code     0  startup_stm32f407xx.o(.text)
    EXTI2_IRQHandler                         0x0800027f   Thumb Code     0  startup_stm32f407xx.o(.text)
    EXTI3_IRQHandler                         0x0800027f   Thumb Code     0  startup_stm32f407xx.o(.text)
    EXTI4_IRQHandler                         0x0800027f   Thumb Code     0  startup_stm32f407xx.o(.text)
    EXTI9_5_IRQHandler                       0x0800027f   Thumb Code     0  startup_stm32f407xx.o(.text)
    FLASH_IRQHandler                         0x0800027f   Thumb Code     0  startup_stm32f407xx.o(.text)
    FMC_IRQHandler                           0x0800027f   Thumb Code     0  startup_stm32f407xx.o(.text)
    FPU_IRQHandler                           0x0800027f   Thumb Code     0  startup_stm32f407xx.o(.text)
    HASH_RNG_IRQHandler                      0x0800027f   Thumb Code     0  startup_stm32f407xx.o(.text)
    I2C1_ER_IRQHandler                       0x0800027f   Thumb Code     0  startup_stm32f407xx.o(.text)
    I2C1_EV_IRQHandler                       0x0800027f   Thumb Code     0  startup_stm32f407xx.o(.text)
    I2C2_ER_IRQHandler                       0x0800027f   Thumb Code     0  startup_stm32f407xx.o(.text)
    I2C2_EV_IRQHandler                       0x0800027f   Thumb Code     0  startup_stm32f407xx.o(.text)
    I2C3_ER_IRQHandler                       0x0800027f   Thumb Code     0  startup_stm32f407xx.o(.text)
    I2C3_EV_IRQHandler                       0x0800027f   Thumb Code     0  startup_stm32f407xx.o(.text)
    OTG_FS_WKUP_IRQHandler                   0x0800027f   Thumb Code     0  startup_stm32f407xx.o(.text)
    OTG_HS_EP1_IN_IRQHandler                 0x0800027f   Thumb Code     0  startup_stm32f407xx.o(.text)
    OTG_HS_EP1_OUT_IRQHandler                0x0800027f   Thumb Code     0  startup_stm32f407xx.o(.text)
    OTG_HS_IRQHandler                        0x0800027f   Thumb Code     0  startup_stm32f407xx.o(.text)
    OTG_HS_WKUP_IRQHandler                   0x0800027f   Thumb Code     0  startup_stm32f407xx.o(.text)
    PVD_IRQHandler                           0x0800027f   Thumb Code     0  startup_stm32f407xx.o(.text)
    RCC_IRQHandler                           0x0800027f   Thumb Code     0  startup_stm32f407xx.o(.text)
    RTC_Alarm_IRQHandler                     0x0800027f   Thumb Code     0  startup_stm32f407xx.o(.text)
    RTC_WKUP_IRQHandler                      0x0800027f   Thumb Code     0  startup_stm32f407xx.o(.text)
    SDIO_IRQHandler                          0x0800027f   Thumb Code     0  startup_stm32f407xx.o(.text)
    SPI1_IRQHandler                          0x0800027f   Thumb Code     0  startup_stm32f407xx.o(.text)
    SPI2_IRQHandler                          0x0800027f   Thumb Code     0  startup_stm32f407xx.o(.text)
    SPI3_IRQHandler                          0x0800027f   Thumb Code     0  startup_stm32f407xx.o(.text)
    TAMP_STAMP_IRQHandler                    0x0800027f   Thumb Code     0  startup_stm32f407xx.o(.text)
    TIM1_BRK_TIM9_IRQHandler                 0x0800027f   Thumb Code     0  startup_stm32f407xx.o(.text)
    TIM1_CC_IRQHandler                       0x0800027f   Thumb Code     0  startup_stm32f407xx.o(.text)
    TIM1_TRG_COM_TIM11_IRQHandler            0x0800027f   Thumb Code     0  startup_stm32f407xx.o(.text)
    TIM1_UP_TIM10_IRQHandler                 0x0800027f   Thumb Code     0  startup_stm32f407xx.o(.text)
    TIM2_IRQHandler                          0x0800027f   Thumb Code     0  startup_stm32f407xx.o(.text)
    TIM3_IRQHandler                          0x0800027f   Thumb Code     0  startup_stm32f407xx.o(.text)
    TIM4_IRQHandler                          0x0800027f   Thumb Code     0  startup_stm32f407xx.o(.text)
    TIM5_IRQHandler                          0x0800027f   Thumb Code     0  startup_stm32f407xx.o(.text)
    TIM6_DAC_IRQHandler                      0x0800027f   Thumb Code     0  startup_stm32f407xx.o(.text)
    TIM7_IRQHandler                          0x0800027f   Thumb Code     0  startup_stm32f407xx.o(.text)
    TIM8_BRK_TIM12_IRQHandler                0x0800027f   Thumb Code     0  startup_stm32f407xx.o(.text)
    TIM8_CC_IRQHandler                       0x0800027f   Thumb Code     0  startup_stm32f407xx.o(.text)
    TIM8_TRG_COM_TIM14_IRQHandler            0x0800027f   Thumb Code     0  startup_stm32f407xx.o(.text)
    TIM8_UP_TIM13_IRQHandler                 0x0800027f   Thumb Code     0  startup_stm32f407xx.o(.text)
    UART4_IRQHandler                         0x0800027f   Thumb Code     0  startup_stm32f407xx.o(.text)
    UART5_IRQHandler                         0x0800027f   Thumb Code     0  startup_stm32f407xx.o(.text)
    USART1_IRQHandler                        0x0800027f   Thumb Code     0  startup_stm32f407xx.o(.text)
    USART2_IRQHandler                        0x0800027f   Thumb Code     0  startup_stm32f407xx.o(.text)
    USART3_IRQHandler                        0x0800027f   Thumb Code     0  startup_stm32f407xx.o(.text)
    USART6_IRQHandler                        0x0800027f   Thumb Code     0  startup_stm32f407xx.o(.text)
    WWDG_IRQHandler                          0x0800027f   Thumb Code     0  startup_stm32f407xx.o(.text)
    __aeabi_memcpy                           0x08000289   Thumb Code    36  memcpya.o(.text)
    __aeabi_memcpy4                          0x08000289   Thumb Code     0  memcpya.o(.text)
    __aeabi_memcpy8                          0x08000289   Thumb Code     0  memcpya.o(.text)
    __aeabi_memset                           0x080002ad   Thumb Code    14  memseta.o(.text)
    __aeabi_memset4                          0x080002ad   Thumb Code     0  memseta.o(.text)
    __aeabi_memset8                          0x080002ad   Thumb Code     0  memseta.o(.text)
    __aeabi_memclr                           0x080002bb   Thumb Code     4  memseta.o(.text)
    __aeabi_memclr4                          0x080002bb   Thumb Code     0  memseta.o(.text)
    __aeabi_memclr8                          0x080002bb   Thumb Code     0  memseta.o(.text)
    _memset$wrapper                          0x080002bf   Thumb Code    18  memseta.o(.text)
    __scatterload                            0x080002d1   Thumb Code    28  init.o(.text)
    __scatterload_rt2                        0x080002d1   Thumb Code     0  init.o(.text)
    __decompress                             0x080002f5   Thumb Code     0  __dczerorl2.o(.text)
    __decompress1                            0x080002f5   Thumb Code    86  __dczerorl2.o(.text)
    CAN1_RX0_IRQHandler                      0x08000481   Thumb Code   116  stm32f4xx_it.o(i.CAN1_RX0_IRQHandler)
    HAL_ADC_ConfigChannel                    0x0800065d   Thumb Code   322  stm32f4xx_hal_adc.o(i.HAL_ADC_ConfigChannel)
    HAL_ADC_Init                             0x080007ad   Thumb Code    58  stm32f4xx_hal_adc.o(i.HAL_ADC_Init)
    HAL_ADC_MspInit                          0x080007e9   Thumb Code    54  stm32f4xx_hal_msp.o(i.HAL_ADC_MspInit)
    HAL_CAN_ConfigFilter                     0x0800082d   Thumb Code   218  stm32f4xx_hal_can.o(i.HAL_CAN_ConfigFilter)
    HAL_CAN_Init                             0x08000911   Thumb Code   328  stm32f4xx_hal_can.o(i.HAL_CAN_Init)
    HAL_CAN_MspInit                          0x08000a59   Thumb Code   118  stm32f4xx_hal_msp.o(i.HAL_CAN_MspInit)
    HAL_CAN_Receive_IT                       0x08000ae5   Thumb Code   134  stm32f4xx_hal_can.o(i.HAL_CAN_Receive_IT)
    HAL_Delay                                0x08000b6b   Thumb Code    22  stm32f4xx_hal.o(i.HAL_Delay)
    HAL_GPIO_Init                            0x08000b81   Thumb Code   398  stm32f4xx_hal_gpio.o(i.HAL_GPIO_Init)
    HAL_GPIO_WritePin                        0x08000d41   Thumb Code    10  stm32f4xx_hal_gpio.o(i.HAL_GPIO_WritePin)
    HAL_GetTick                              0x08000d4d   Thumb Code     6  stm32f4xx_hal.o(i.HAL_GetTick)
    HAL_HCD_Connect_Callback                 0x08000d59   Thumb Code     8  usbh_conf.o(i.HAL_HCD_Connect_Callback)
    HAL_HCD_Disconnect_Callback              0x08000d61   Thumb Code     8  usbh_conf.o(i.HAL_HCD_Disconnect_Callback)
    HAL_HCD_GetCurrentFrame                  0x08000d69   Thumb Code     6  stm32f4xx_hal_hcd.o(i.HAL_HCD_GetCurrentFrame)
    HAL_HCD_GetCurrentSpeed                  0x08000d6f   Thumb Code     6  stm32f4xx_hal_hcd.o(i.HAL_HCD_GetCurrentSpeed)
    HAL_HCD_HC_GetURBState                   0x08000d75   Thumb Code    14  stm32f4xx_hal_hcd.o(i.HAL_HCD_HC_GetURBState)
    HAL_HCD_HC_GetXferCount                  0x08000d83   Thumb Code    12  stm32f4xx_hal_hcd.o(i.HAL_HCD_HC_GetXferCount)
    HAL_HCD_HC_Halt                          0x08000d8f   Thumb Code    36  stm32f4xx_hal_hcd.o(i.HAL_HCD_HC_Halt)
    HAL_HCD_HC_Init                          0x08000db3   Thumb Code    84  stm32f4xx_hal_hcd.o(i.HAL_HCD_HC_Init)
    HAL_HCD_HC_NotifyURBChange_Callback      0x08000e07   Thumb Code     8  usbh_conf.o(i.HAL_HCD_HC_NotifyURBChange_Callback)
    HAL_HCD_HC_SubmitRequest                 0x08000e0f   Thumb Code   182  stm32f4xx_hal_hcd.o(i.HAL_HCD_HC_SubmitRequest)
    HAL_HCD_IRQHandler                       0x08000ec5   Thumb Code   302  stm32f4xx_hal_hcd.o(i.HAL_HCD_IRQHandler)
    HAL_HCD_Init                             0x08000ff3   Thumb Code    90  stm32f4xx_hal_hcd.o(i.HAL_HCD_Init)
    HAL_HCD_MspInit                          0x0800104d   Thumb Code   110  usbh_conf.o(i.HAL_HCD_MspInit)
    HAL_HCD_ResetPort                        0x080010c5   Thumb Code     6  stm32f4xx_hal_hcd.o(i.HAL_HCD_ResetPort)
    HAL_HCD_SOF_Callback                     0x080010cb   Thumb Code     8  usbh_conf.o(i.HAL_HCD_SOF_Callback)
    HAL_HCD_Start                            0x080010d3   Thumb Code    44  stm32f4xx_hal_hcd.o(i.HAL_HCD_Start)
    HAL_HCD_Stop                             0x080010ff   Thumb Code    36  stm32f4xx_hal_hcd.o(i.HAL_HCD_Stop)
    HAL_IncTick                              0x08001125   Thumb Code    10  stm32f4xx_hal.o(i.HAL_IncTick)
    HAL_Init                                 0x08001135   Thumb Code    48  stm32f4xx_hal.o(i.HAL_Init)
    HAL_InitTick                             0x08001169   Thumb Code    34  stm32f4xx_hal.o(i.HAL_InitTick)
    HAL_MspInit                              0x0800118b   Thumb Code    22  stm32f4xx_hal_msp.o(i.HAL_MspInit)
    HAL_NVIC_EnableIRQ                       0x080011a1   Thumb Code    22  stm32f4xx_hal_cortex.o(i.HAL_NVIC_EnableIRQ)
    HAL_NVIC_SetPriority                     0x080011b9   Thumb Code    60  stm32f4xx_hal_cortex.o(i.HAL_NVIC_SetPriority)
    HAL_NVIC_SetPriorityGrouping             0x080011f9   Thumb Code    26  stm32f4xx_hal_cortex.o(i.HAL_NVIC_SetPriorityGrouping)
    HAL_RCC_ClockConfig                      0x0800121d   Thumb Code   514  stm32f4xx_hal_rcc.o(i.HAL_RCC_ClockConfig)
    HAL_RCC_GetHCLKFreq                      0x08001429   Thumb Code    38  stm32f4xx_hal_rcc.o(i.HAL_RCC_GetHCLKFreq)
    HAL_RCC_GetSysClockFreq                  0x0800145d   Thumb Code   104  stm32f4xx_hal_rcc.o(i.HAL_RCC_GetSysClockFreq)
    HAL_RCC_OscConfig                        0x080014cd   Thumb Code   806  stm32f4xx_hal_rcc.o(i.HAL_RCC_OscConfig)
    HAL_SYSTICK_Config                       0x08001809   Thumb Code    40  stm32f4xx_hal_cortex.o(i.HAL_SYSTICK_Config)
    MX_USB_HOST_Init                         0x08002059   Thumb Code    62  usb_host.o(i.MX_USB_HOST_Init)
    OTG_FS_IRQHandler                        0x080020d5   Thumb Code     6  stm32f4xx_it.o(i.OTG_FS_IRQHandler)
    StartDefaultTask                         0x080024cd   Thumb Code    12  main.o(i.StartDefaultTask)
    SysTick_Handler                          0x080024d9   Thumb Code    14  stm32f4xx_it.o(i.SysTick_Handler)
    SystemClock_Config                       0x080024e9   Thumb Code   108  main.o(i.SystemClock_Config)
    SystemInit                               0x0800255d   Thumb Code    66  system_stm32f4xx.o(i.SystemInit)
    USBH_AUDIO_BufferEmptyCallback           0x080027b9   Thumb Code     2  usbh_audio.o(i.USBH_AUDIO_BufferEmptyCallback)
    USBH_AUDIO_FrequencySet                  0x08002e21   Thumb Code     2  usbh_audio.o(i.USBH_AUDIO_FrequencySet)
    USBH_AllocPipe                           0x0800334d   Thumb Code    52  usbh_pipes.o(i.USBH_AllocPipe)
    USBH_BulkReceiveData                     0x08003381   Thumb Code    32  usbh_ioreq.o(i.USBH_BulkReceiveData)
    USBH_BulkSendData                        0x080033a1   Thumb Code    40  usbh_ioreq.o(i.USBH_BulkSendData)
    USBH_CDC_LineCodingChanged               0x0800357f   Thumb Code     2  usbh_cdc.o(i.USBH_CDC_LineCodingChanged)
    USBH_CDC_ReceiveCallback                 0x08003639   Thumb Code     2  usbh_cdc.o(i.USBH_CDC_ReceiveCallback)
    USBH_CDC_TransmitCallback                0x0800363f   Thumb Code     2  usbh_cdc.o(i.USBH_CDC_TransmitCallback)
    USBH_ClosePipe                           0x08003641   Thumb Code    10  usbh_pipes.o(i.USBH_ClosePipe)
    USBH_ClrFeature                          0x0800364b   Thumb Code    30  usbh_ctlreq.o(i.USBH_ClrFeature)
    USBH_CtlReceiveData                      0x08003669   Thumb Code    30  usbh_ioreq.o(i.USBH_CtlReceiveData)
    USBH_CtlReq                              0x08003687   Thumb Code    74  usbh_ctlreq.o(i.USBH_CtlReq)
    USBH_CtlSendData                         0x080036d1   Thumb Code    40  usbh_ioreq.o(i.USBH_CtlSendData)
    USBH_CtlSendSetup                        0x080036f9   Thumb Code    30  usbh_ioreq.o(i.USBH_CtlSendSetup)
    USBH_Delay                               0x08003717   Thumb Code     4  usbh_conf.o(i.USBH_Delay)
    USBH_FindInterface                       0x0800371b   Thumb Code    68  usbh_core.o(i.USBH_FindInterface)
    USBH_FindInterfaceIndex                  0x0800375f   Thumb Code    50  usbh_core.o(i.USBH_FindInterfaceIndex)
    USBH_FreePipe                            0x08003791   Thumb Code    24  usbh_pipes.o(i.USBH_FreePipe)
    USBH_GetDescriptor                       0x080037a9   Thumb Code    52  usbh_ctlreq.o(i.USBH_GetDescriptor)
    USBH_GetNextDesc                         0x080037dd   Thumb Code    14  usbh_ctlreq.o(i.USBH_GetNextDesc)
    USBH_Get_CfgDesc                         0x080037eb   Thumb Code    44  usbh_ctlreq.o(i.USBH_Get_CfgDesc)
    USBH_Get_DevDesc                         0x08003817   Thumb Code   154  usbh_ctlreq.o(i.USBH_Get_DevDesc)
    USBH_Get_StringDesc                      0x080038b1   Thumb Code    72  usbh_ctlreq.o(i.USBH_Get_StringDesc)
    USBH_HID_EventCallback                   0x080039a5   Thumb Code     2  usbh_hid.o(i.USBH_HID_EventCallback)
    USBH_HID_GetHIDDescriptor                0x080039a7   Thumb Code    20  usbh_hid.o(i.USBH_HID_GetHIDDescriptor)
    USBH_HID_GetHIDReportDescriptor          0x080039bb   Thumb Code    20  usbh_hid.o(i.USBH_HID_GetHIDReportDescriptor)
    USBH_HID_GetReport                       0x080039cf   Thumb Code    34  usbh_hid.o(i.USBH_HID_GetReport)
    USBH_HID_KeybdInit                       0x08003b91   Thumb Code    76  usbh_hid_keybd.o(i.USBH_HID_KeybdInit)
    USBH_HID_MouseInit                       0x08003be5   Thumb Code    56  usbh_hid_mouse.o(i.USBH_HID_MouseInit)
    USBH_HID_SetIdle                         0x08003d1b   Thumb Code    26  usbh_hid.o(i.USBH_HID_SetIdle)
    USBH_HID_SetProtocol                     0x08003d35   Thumb Code    30  usbh_hid.o(i.USBH_HID_SetProtocol)
    USBH_Init                                0x08003ff5   Thumb Code    98  usbh_core.o(i.USBH_Init)
    USBH_InterruptReceiveData                0x0800405d   Thumb Code    32  usbh_ioreq.o(i.USBH_InterruptReceiveData)
    USBH_IsocSendData                        0x0800407d   Thumb Code    34  usbh_ioreq.o(i.USBH_IsocSendData)
    USBH_LL_ClosePipe                        0x0800409f   Thumb Code    14  usbh_conf.o(i.USBH_LL_ClosePipe)
    USBH_LL_Connect                          0x080040ad   Thumb Code    56  usbh_core.o(i.USBH_LL_Connect)
    USBH_LL_Disconnect                       0x080040e5   Thumb Code    68  usbh_core.o(i.USBH_LL_Disconnect)
    USBH_LL_DriverVBUS                       0x08004129   Thumb Code    12  usbh_conf.o(i.USBH_LL_DriverVBUS)
    USBH_LL_GetLastXferSize                  0x08004135   Thumb Code     8  usbh_conf.o(i.USBH_LL_GetLastXferSize)
    USBH_LL_GetSpeed                         0x0800413d   Thumb Code    34  usbh_conf.o(i.USBH_LL_GetSpeed)
    USBH_LL_GetToggle                        0x0800415f   Thumb Code    30  usbh_conf.o(i.USBH_LL_GetToggle)
    USBH_LL_GetURBState                      0x0800417d   Thumb Code     8  usbh_conf.o(i.USBH_LL_GetURBState)
    USBH_LL_IncTimer                         0x08004185   Thumb Code    30  usbh_core.o(i.USBH_LL_IncTimer)
    USBH_LL_Init                             0x080041a5   Thumb Code    68  usbh_conf.o(i.USBH_LL_Init)
    USBH_LL_NotifyURBChange                  0x080041ed   Thumb Code    18  usbh_core.o(i.USBH_LL_NotifyURBChange)
    USBH_LL_OpenPipe                         0x080041ff   Thumb Code    24  usbh_conf.o(i.USBH_LL_OpenPipe)
    USBH_LL_ResetPort                        0x08004217   Thumb Code    14  usbh_conf.o(i.USBH_LL_ResetPort)
    USBH_LL_SetTimer                         0x08004225   Thumb Code     6  usbh_core.o(i.USBH_LL_SetTimer)
    USBH_LL_SetToggle                        0x0800422b   Thumb Code    32  usbh_conf.o(i.USBH_LL_SetToggle)
    USBH_LL_Start                            0x0800424b   Thumb Code    14  usbh_conf.o(i.USBH_LL_Start)
    USBH_LL_Stop                             0x08004259   Thumb Code    14  usbh_conf.o(i.USBH_LL_Stop)
    USBH_LL_SubmitURB                        0x08004267   Thumb Code    32  usbh_conf.o(i.USBH_LL_SubmitURB)
    USBH_MSC_BOT_Init                        0x080042a5   Thumb Code    26  usbh_msc_bot.o(i.USBH_MSC_BOT_Init)
    USBH_MSC_BOT_Process                     0x080042c9   Thumb Code   504  usbh_msc_bot.o(i.USBH_MSC_BOT_Process)
    USBH_MSC_BOT_REQ_GetMaxLUN               0x080044c5   Thumb Code    22  usbh_msc_bot.o(i.USBH_MSC_BOT_REQ_GetMaxLUN)
    USBH_MSC_BOT_REQ_Reset                   0x080044db   Thumb Code    22  usbh_msc_bot.o(i.USBH_MSC_BOT_REQ_Reset)
    USBH_MSC_SCSI_Inquiry                    0x0800499b   Thumb Code   192  usbh_msc_scsi.o(i.USBH_MSC_SCSI_Inquiry)
    USBH_MSC_SCSI_ReadCapacity               0x08004a5b   Thumb Code   122  usbh_msc_scsi.o(i.USBH_MSC_SCSI_ReadCapacity)
    USBH_MSC_SCSI_RequestSense               0x08004ad5   Thumb Code   146  usbh_msc_scsi.o(i.USBH_MSC_SCSI_RequestSense)
    USBH_MSC_SCSI_TestUnitReady              0x08004b67   Thumb Code    76  usbh_msc_scsi.o(i.USBH_MSC_SCSI_TestUnitReady)
    USBH_MTP_EventsCallback                  0x08004c6d   Thumb Code     2  usbh_mtp.o(i.USBH_MTP_EventsCallback)
    USBH_OpenPipe                            0x08005001   Thumb Code    20  usbh_pipes.o(i.USBH_OpenPipe)
    USBH_PTP_GetDeviceInfo                   0x08005015   Thumb Code   154  usbh_mtp_ptp.o(i.USBH_PTP_GetDeviceInfo)
    USBH_PTP_GetResponse                     0x080050af   Thumb Code    54  usbh_mtp_ptp.o(i.USBH_PTP_GetResponse)
    USBH_PTP_GetStorageIds                   0x080050e5   Thumb Code   168  usbh_mtp_ptp.o(i.USBH_PTP_GetStorageIds)
    USBH_PTP_GetStorageInfo                  0x0800518d   Thumb Code   166  usbh_mtp_ptp.o(i.USBH_PTP_GetStorageInfo)
    USBH_PTP_Init                            0x08005233   Thumb Code    26  usbh_mtp_ptp.o(i.USBH_PTP_Init)
    USBH_PTP_OpenSession                     0x0800524d   Thumb Code   122  usbh_mtp_ptp.o(i.USBH_PTP_OpenSession)
    USBH_PTP_Process                         0x080052c9   Thumb Code   588  usbh_mtp_ptp.o(i.USBH_PTP_Process)
    USBH_PTP_SendRequest                     0x08005515   Thumb Code    86  usbh_mtp_ptp.o(i.USBH_PTP_SendRequest)
    USBH_Process                             0x08005653   Thumb Code   384  usbh_core.o(i.USBH_Process)
    USBH_RegisterClass                       0x080057f5   Thumb Code    36  usbh_core.o(i.USBH_RegisterClass)
    USBH_SelectInterface                     0x08005819   Thumb Code    22  usbh_core.o(i.USBH_SelectInterface)
    USBH_SetAddress                          0x0800582f   Thumb Code    28  usbh_ctlreq.o(i.USBH_SetAddress)
    USBH_SetCfg                              0x0800584b   Thumb Code    28  usbh_ctlreq.o(i.USBH_SetCfg)
    USBH_SetInterface                        0x08005867   Thumb Code    28  usbh_ctlreq.o(i.USBH_SetInterface)
    USBH_Start                               0x08005883   Thumb Code    20  usbh_core.o(i.USBH_Start)
    USB_CoreInit                             0x080058b9   Thumb Code   104  stm32f4xx_ll_usb.o(i.USB_CoreInit)
    USB_DisableGlobalInt                     0x0800595d   Thumb Code    12  stm32f4xx_ll_usb.o(i.USB_DisableGlobalInt)
    USB_DoPing                               0x08005969   Thumb Code    78  stm32f4xx_ll_usb.o(i.USB_DoPing)
    USB_DriveVbus                            0x080059bd   Thumb Code    44  stm32f4xx_ll_usb.o(i.USB_DriveVbus)
    USB_EnableGlobalInt                      0x080059e9   Thumb Code    12  stm32f4xx_ll_usb.o(i.USB_EnableGlobalInt)
    USB_FlushRxFifo                          0x080059f5   Thumb Code    28  stm32f4xx_ll_usb.o(i.USB_FlushRxFifo)
    USB_FlushTxFifo                          0x08005a15   Thumb Code    32  stm32f4xx_ll_usb.o(i.USB_FlushTxFifo)
    USB_GetCurrentFrame                      0x08005a39   Thumb Code     8  stm32f4xx_ll_usb.o(i.USB_GetCurrentFrame)
    USB_GetHostSpeed                         0x08005a41   Thumb Code    14  stm32f4xx_ll_usb.o(i.USB_GetHostSpeed)
    USB_GetMode                              0x08005a4f   Thumb Code     8  stm32f4xx_ll_usb.o(i.USB_GetMode)
    USB_HC_Halt                              0x08005a57   Thumb Code   376  stm32f4xx_ll_usb.o(i.USB_HC_Halt)
    USB_HC_Init                              0x08005bd1   Thumb Code   234  stm32f4xx_ll_usb.o(i.USB_HC_Init)
    USB_HC_ReadInterrupt                     0x08005cbb   Thumb Code    12  stm32f4xx_ll_usb.o(i.USB_HC_ReadInterrupt)
    USB_HC_StartXfer                         0x08005cc9   Thumb Code   396  stm32f4xx_ll_usb.o(i.USB_HC_StartXfer)
    USB_HostInit                             0x08005e59   Thumb Code   192  stm32f4xx_ll_usb.o(i.USB_HostInit)
    USB_InitFSLSPClkSel                      0x08005f2d   Thumb Code    54  stm32f4xx_ll_usb.o(i.USB_InitFSLSPClkSel)
    USB_ReadInterrupts                       0x08005f63   Thumb Code     8  stm32f4xx_ll_usb.o(i.USB_ReadInterrupts)
    USB_ReadPacket                           0x08005f6b   Thumb Code    32  stm32f4xx_ll_usb.o(i.USB_ReadPacket)
    USB_ResetPort                            0x08005f8b   Thumb Code    44  stm32f4xx_ll_usb.o(i.USB_ResetPort)
    USB_SetCurrentMode                       0x08005fb7   Thumb Code    44  stm32f4xx_ll_usb.o(i.USB_SetCurrentMode)
    USB_StopHost                             0x08005fe3   Thumb Code   178  stm32f4xx_ll_usb.o(i.USB_StopHost)
    USB_WritePacket                          0x08006095   Thumb Code    40  stm32f4xx_ll_usb.o(i.USB_WritePacket)
    __scatterload_copy                       0x080060bd   Thumb Code    14  handlers.o(i.__scatterload_copy)
    __scatterload_null                       0x080060cb   Thumb Code     2  handlers.o(i.__scatterload_null)
    __scatterload_zeroinit                   0x080060cd   Thumb Code    14  handlers.o(i.__scatterload_zeroinit)
    fifo_init                                0x080060db   Thumb Code    14  usbh_hid.o(i.fifo_init)
    fifo_write                               0x080060e9   Thumb Code    80  usbh_hid.o(i.fifo_write)
    free                                     0x08006139   Thumb Code    76  malloc.o(i.free)
    main                                     0x08006195   Thumb Code    82  main.o(i.main)
    malloc                                   0x08006209   Thumb Code    92  malloc.o(i.malloc)
    osDelay                                  0x08006275   Thumb Code    14  cmsis_os.o(i.osDelay)
    osKernelStart                            0x08006283   Thumb Code    10  cmsis_os.o(i.osKernelStart)
    osMessageCreate                          0x0800628d   Thumb Code    10  cmsis_os.o(i.osMessageCreate)
    osMessageGet                             0x08006299   Thumb Code   134  cmsis_os.o(i.osMessageGet)
    osMessagePut                             0x08006325   Thumb Code    78  cmsis_os.o(i.osMessagePut)
    osSystickHandler                         0x08006379   Thumb Code    20  cmsis_os.o(i.osSystickHandler)
    osThreadCreate                           0x0800638d   Thumb Code    56  cmsis_os.o(i.osThreadCreate)
    pvPortMalloc                             0x0800662d   Thumb Code   182  heap_4.o(i.pvPortMalloc)
    pvTaskIncrementMutexHeldCount            0x080066e9   Thumb Code    18  tasks.o(i.pvTaskIncrementMutexHeldCount)
    pxPortInitialiseStack                    0x08006701   Thumb Code    36  port.o(i.pxPortInitialiseStack)
    uxListRemove                             0x08006729   Thumb Code    36  list.o(i.uxListRemove)
    vListInitialise                          0x0800674d   Thumb Code    22  list.o(i.vListInitialise)
    vListInitialiseItem                      0x08006763   Thumb Code     6  list.o(i.vListInitialiseItem)
    vListInsert                              0x08006769   Thumb Code    48  list.o(i.vListInsert)
    vListInsertEnd                           0x08006799   Thumb Code    24  list.o(i.vListInsertEnd)
    vPortEnterCritical                       0x080067b1   Thumb Code    42  port.o(i.vPortEnterCritical)
    vPortExitCritical                        0x080067e5   Thumb Code    30  port.o(i.vPortExitCritical)
    vPortFree                                0x08006809   Thumb Code    68  heap_4.o(i.vPortFree)
    vPortSetupTimerInterrupt                 0x08006851   Thumb Code    26  port.o(i.vPortSetupTimerInterrupt)
    vPortValidateInterruptPriority           0x08006871   Thumb Code    54  port.o(i.vPortValidateInterruptPriority)
    vPortYield                               0x080068b1   Thumb Code    18  port.o(i.vPortYield)
    vTaskDelay                               0x080068c9   Thumb Code    76  tasks.o(i.vTaskDelay)
    vTaskMissedYield                         0x08006919   Thumb Code     8  tasks.o(i.vTaskMissedYield)
    vTaskPlaceOnEventList                    0x08006925   Thumb Code    80  tasks.o(i.vTaskPlaceOnEventList)
    vTaskPriorityInherit                     0x0800697d   Thumb Code   124  tasks.o(i.vTaskPriorityInherit)
    vTaskSetTimeOutState                     0x08006a01   Thumb Code    22  tasks.o(i.vTaskSetTimeOutState)
    vTaskStartScheduler                      0x08006a1d   Thumb Code    60  tasks.o(i.vTaskStartScheduler)
    vTaskSuspendAll                          0x08006a69   Thumb Code    10  tasks.o(i.vTaskSuspendAll)
    vTaskSwitchContext                       0x08006a79   Thumb Code    74  tasks.o(i.vTaskSwitchContext)
    vTask_ControlLamps                       0x08006acd   Thumb Code   304  main.o(i.vTask_ControlLamps)
    xPortStartScheduler                      0x08006c05   Thumb Code   116  port.o(i.xPortStartScheduler)
    xPortSysTickHandler                      0x08006c89   Thumb Code    30  port.o(i.xPortSysTickHandler)
    xQueueGenericCreate                      0x08006cad   Thumb Code    70  queue.o(i.xQueueGenericCreate)
    xQueueGenericReceive                     0x08006cf5   Thumb Code   302  queue.o(i.xQueueGenericReceive)
    xQueueGenericReset                       0x08006e23   Thumb Code   106  queue.o(i.xQueueGenericReset)
    xQueueGenericSend                        0x08006e8d   Thumb Code   276  queue.o(i.xQueueGenericSend)
    xQueueGenericSendFromISR                 0x08006fa1   Thumb Code   146  queue.o(i.xQueueGenericSendFromISR)
    xQueueReceiveFromISR                     0x08007033   Thumb Code   118  queue.o(i.xQueueReceiveFromISR)
    xTaskCheckForTimeOut                     0x080070a9   Thumb Code    82  tasks.o(i.xTaskCheckForTimeOut)
    xTaskGenericCreate                       0x08007101   Thumb Code   380  tasks.o(i.xTaskGenericCreate)
    xTaskGetSchedulerState                   0x08007285   Thumb Code    22  tasks.o(i.xTaskGetSchedulerState)
    xTaskIncrementTick                       0x080072a1   Thumb Code   184  tasks.o(i.xTaskIncrementTick)
    xTaskPriorityDisinherit                  0x08007361   Thumb Code   112  tasks.o(i.xTaskPriorityDisinherit)
    xTaskRemoveFromEventList                 0x080073d9   Thumb Code    98  tasks.o(i.xTaskRemoveFromEventList)
    xTaskResumeAll                           0x08007445   Thumb Code   162  tasks.o(i.xTaskResumeAll)
    APBAHBPrescTable                         0x0800750c   Data          16  stm32f4xx_hal_rcc.o(.constdata)
    Region$$Table$$Base                      0x08007560   Number         0  anon$$obj.o(Region$$Table)
    Region$$Table$$Limit                     0x08007580   Number         0  anon$$obj.o(Region$$Table)
    HID_Class                                0x20000000   Data          32  usbh_hid.o(.data)
    mouse_report_data                        0x20000020   Data           4  usbh_hid_mouse.o(.data)
    mouse_info                               0x20000024   Data           5  usbh_hid_mouse.o(.data)
    MTP_Class                                0x2000002c   Data          32  usbh_mtp.o(.data)
    CDC_Class                                0x2000004c   Data          32  usbh_cdc.o(.data)
    USBH_msc                                 0x2000006c   Data          32  usbh_msc.o(.data)
    keybd_report_data                        0x2000008c   Data           8  usbh_hid_keybd.o(.data)
    AUDIO_Class                              0x20000094   Data          32  usbh_audio.o(.data)
    pxCurrentTCB                             0x200000c4   Data           4  tasks.o(.data)
    SystemCoreClock                          0x20000114   Data           4  system_stm32f4xx.o(.data)
    AHBPrescTable                            0x20000118   Data          16  system_stm32f4xx.o(.data)
    defaultTaskHandle                        0x20000128   Data           4  main.o(.data)
    Appli_state                              0x2000012c   Data           1  usb_host.o(.data)
    __microlib_freelist                      0x20000130   Data           4  mvars.o(.data)
    __microlib_freelist_initialised          0x20000134   Data           4  mvars.o(.data)
    keybd_info                               0x20000138   Data          15  usbh_hid_keybd.o(.bss)
    hadc1                                    0x20003e60   Data          68  main.o(.bss)
    hcan1                                    0x20003ea4   Data          64  main.o(.bss)
    hcan2                                    0x20003ee4   Data          64  main.o(.bss)
    hUsbHostFS                               0x20003f24   Data        1440  usb_host.o(.bss)
    hhcd_USB_OTG_FS                          0x200044c4   Data         660  usbh_conf.o(.bss)
    __heap_base                              0x20004758   Data           0  startup_stm32f407xx.o(HEAP)
    __heap_limit                             0x20004958   Data           0  startup_stm32f407xx.o(HEAP)
    __initial_sp                             0x20004d58   Data           0  startup_stm32f407xx.o(STACK)



==============================================================================

Memory Map of the image

  Image Entry point : 0x08000189

  Load Region LR_IROM1 (Base: 0x08000000, Size: 0x000076b8, Max: 0x00100000, ABSOLUTE, COMPRESSED[0x00007614])

    Execution Region ER_IROM1 (Base: 0x08000000, Size: 0x00007580, Max: 0x00100000, ABSOLUTE)

    Base Addr    Size         Type   Attr      Idx    E Section Name        Object

    0x08000000   0x00000188   Data   RO         3407    RESET               startup_stm32f407xx.o
    0x08000188   0x00000000   Code   RO         4783  * .ARM.Collect$$$$00000000  mc_w.l(entry.o)
    0x08000188   0x00000004   Code   RO         4820    .ARM.Collect$$$$00000001  mc_w.l(entry2.o)
    0x0800018c   0x00000004   Code   RO         4823    .ARM.Collect$$$$00000004  mc_w.l(entry5.o)
    0x08000190   0x00000000   Code   RO         4825    .ARM.Collect$$$$00000008  mc_w.l(entry7b.o)
    0x08000190   0x00000000   Code   RO         4827    .ARM.Collect$$$$0000000A  mc_w.l(entry8b.o)
    0x08000190   0x00000008   Code   RO         4828    .ARM.Collect$$$$0000000B  mc_w.l(entry9a.o)
    0x08000198   0x00000000   Code   RO         4830    .ARM.Collect$$$$0000000D  mc_w.l(entry10a.o)
    0x08000198   0x00000000   Code   RO         4832    .ARM.Collect$$$$0000000F  mc_w.l(entry11a.o)
    0x08000198   0x00000004   Code   RO         4821    .ARM.Collect$$$$00002712  mc_w.l(entry2.o)
    0x0800019c   0x000000c6   Code   RO         3412    .emb_text           port.o
    0x08000262   0x00000002   PAD
    0x08000264   0x00000024   Code   RO         3408    .text               startup_stm32f407xx.o
    0x08000288   0x00000024   Code   RO         4786    .text               mc_w.l(memcpya.o)
    0x080002ac   0x00000024   Code   RO         4788    .text               mc_w.l(memseta.o)
    0x080002d0   0x00000024   Code   RO         4836    .text               mc_w.l(init.o)
    0x080002f4   0x00000056   Code   RO         4846    .text               mc_w.l(__dczerorl2.o)
    0x0800034a   0x00000002   PAD
    0x0800034c   0x00000134   Code   RO         2958    i.ADC_Init          stm32f4xx_hal_adc.o
    0x08000480   0x00000080   Code   RO         4593    i.CAN1_RX0_IRQHandler  stm32f4xx_it.o
    0x08000500   0x0000007a   Code   RO          750    i.CDC_ProcessReception  usbh_cdc.o
    0x0800057a   0x00000080   Code   RO          751    i.CDC_ProcessTransmission  usbh_cdc.o
    0x080005fa   0x00000002   PAD
    0x080005fc   0x00000048   Code   RO         1006    i.DeInitStateMachine  usbh_core.o
    0x08000644   0x00000016   Code   RO          752    i.GetLineCoding     usbh_cdc.o
    0x0800065a   0x00000002   PAD
    0x0800065c   0x00000150   Code   RO         2960    i.HAL_ADC_ConfigChannel  stm32f4xx_hal_adc.o
    0x080007ac   0x0000003a   Code   RO         2969    i.HAL_ADC_Init      stm32f4xx_hal_adc.o
    0x080007e6   0x00000002   PAD
    0x080007e8   0x00000044   Code   RO         4546    i.HAL_ADC_MspInit   stm32f4xx_hal_msp.o
    0x0800082c   0x000000e4   Code   RO         2827    i.HAL_CAN_ConfigFilter  stm32f4xx_hal_can.o
    0x08000910   0x00000148   Code   RO         2833    i.HAL_CAN_Init      stm32f4xx_hal_can.o
    0x08000a58   0x0000008c   Code   RO         4548    i.HAL_CAN_MspInit   stm32f4xx_hal_msp.o
    0x08000ae4   0x00000086   Code   RO         2837    i.HAL_CAN_Receive_IT  stm32f4xx_hal_can.o
    0x08000b6a   0x00000016   Code   RO         1617    i.HAL_Delay         stm32f4xx_hal.o
    0x08000b80   0x000001c0   Code   RO         1981    i.HAL_GPIO_Init     stm32f4xx_hal_gpio.o
    0x08000d40   0x0000000a   Code   RO         1985    i.HAL_GPIO_WritePin  stm32f4xx_hal_gpio.o
    0x08000d4a   0x00000002   PAD
    0x08000d4c   0x0000000c   Code   RO         1623    i.HAL_GetTick       stm32f4xx_hal.o
    0x08000d58   0x00000008   Code   RO         4633    i.HAL_HCD_Connect_Callback  usbh_conf.o
    0x08000d60   0x00000008   Code   RO         4634    i.HAL_HCD_Disconnect_Callback  usbh_conf.o
    0x08000d68   0x00000006   Code   RO         2164    i.HAL_HCD_GetCurrentFrame  stm32f4xx_hal_hcd.o
    0x08000d6e   0x00000006   Code   RO         2165    i.HAL_HCD_GetCurrentSpeed  stm32f4xx_hal_hcd.o
    0x08000d74   0x0000000e   Code   RO         2168    i.HAL_HCD_HC_GetURBState  stm32f4xx_hal_hcd.o
    0x08000d82   0x0000000c   Code   RO         2169    i.HAL_HCD_HC_GetXferCount  stm32f4xx_hal_hcd.o
    0x08000d8e   0x00000024   Code   RO         2170    i.HAL_HCD_HC_Halt   stm32f4xx_hal_hcd.o
    0x08000db2   0x00000054   Code   RO         2171    i.HAL_HCD_HC_Init   stm32f4xx_hal_hcd.o
    0x08000e06   0x00000008   Code   RO         4635    i.HAL_HCD_HC_NotifyURBChange_Callback  usbh_conf.o
    0x08000e0e   0x000000b6   Code   RO         2173    i.HAL_HCD_HC_SubmitRequest  stm32f4xx_hal_hcd.o
    0x08000ec4   0x0000012e   Code   RO         2174    i.HAL_HCD_IRQHandler  stm32f4xx_hal_hcd.o
    0x08000ff2   0x0000005a   Code   RO         2175    i.HAL_HCD_Init      stm32f4xx_hal_hcd.o
    0x0800104c   0x00000078   Code   RO         4637    i.HAL_HCD_MspInit   usbh_conf.o
    0x080010c4   0x00000006   Code   RO         2178    i.HAL_HCD_ResetPort  stm32f4xx_hal_hcd.o
    0x080010ca   0x00000008   Code   RO         4638    i.HAL_HCD_SOF_Callback  usbh_conf.o
    0x080010d2   0x0000002c   Code   RO         2180    i.HAL_HCD_Start     stm32f4xx_hal_hcd.o
    0x080010fe   0x00000024   Code   RO         2181    i.HAL_HCD_Stop      stm32f4xx_hal_hcd.o
    0x08001122   0x00000002   PAD
    0x08001124   0x00000010   Code   RO         1624    i.HAL_IncTick       stm32f4xx_hal.o
    0x08001134   0x00000034   Code   RO         1625    i.HAL_Init          stm32f4xx_hal.o
    0x08001168   0x00000022   Code   RO         1626    i.HAL_InitTick      stm32f4xx_hal.o
    0x0800118a   0x00000016   Code   RO         4549    i.HAL_MspInit       stm32f4xx_hal_msp.o
    0x080011a0   0x00000016   Code   RO         2046    i.HAL_NVIC_EnableIRQ  stm32f4xx_hal_cortex.o
    0x080011b6   0x00000002   PAD
    0x080011b8   0x00000040   Code   RO         2052    i.HAL_NVIC_SetPriority  stm32f4xx_hal_cortex.o
    0x080011f8   0x00000024   Code   RO         2053    i.HAL_NVIC_SetPriorityGrouping  stm32f4xx_hal_cortex.o
    0x0800121c   0x0000020c   Code   RO         2367    i.HAL_RCC_ClockConfig  stm32f4xx_hal_rcc.o
    0x08001428   0x00000034   Code   RO         2372    i.HAL_RCC_GetHCLKFreq  stm32f4xx_hal_rcc.o
    0x0800145c   0x00000070   Code   RO         2376    i.HAL_RCC_GetSysClockFreq  stm32f4xx_hal_rcc.o
    0x080014cc   0x0000033c   Code   RO         2379    i.HAL_RCC_OscConfig  stm32f4xx_hal_rcc.o
    0x08001808   0x00000028   Code   RO         2057    i.HAL_SYSTICK_Config  stm32f4xx_hal_cortex.o
    0x08001830   0x00000242   Code   RO         2182    i.HCD_HC_IN_IRQHandler  stm32f4xx_hal_hcd.o
    0x08001a72   0x00000234   Code   RO         2183    i.HCD_HC_OUT_IRQHandler  stm32f4xx_hal_hcd.o
    0x08001ca6   0x000000b0   Code   RO         2184    i.HCD_Port_IRQHandler  stm32f4xx_hal_hcd.o
    0x08001d56   0x00000002   PAD
    0x08001d58   0x00000078   Code   RO         2185    i.HCD_RXQLVL_IRQHandler  stm32f4xx_hal_hcd.o
    0x08001dd0   0x0000003c   Code   RO         4415    i.MX_ADC1_Init      main.o
    0x08001e0c   0x0000008c   Code   RO         4416    i.MX_CAN1_Init      main.o
    0x08001e98   0x0000002c   Code   RO         4417    i.MX_CAN2_Init      main.o
    0x08001ec4   0x00000194   Code   RO         4418    i.MX_GPIO_Init      main.o
    0x08002058   0x0000005c   Code   RO         4498    i.MX_USB_HOST_Init  usb_host.o
    0x080020b4   0x00000020   Code   RO         2059    i.NVIC_SetPriority  stm32f4xx_hal_cortex.o
    0x080020d4   0x0000000c   Code   RO         4594    i.OTG_FS_IRQHandler  stm32f4xx_it.o
    0x080020e0   0x00000070   Code   RO         1224    i.PTP_BufferFullCallback  usbh_mtp_ptp.o
    0x08002150   0x00000138   Code   RO         1225    i.PTP_DecodeDeviceInfo  usbh_mtp_ptp.o
    0x08002288   0x0000003a   Code   RO         1226    i.PTP_GetArray16    usbh_mtp_ptp.o
    0x080022c2   0x00000002   PAD
    0x080022c4   0x00000046   Code   RO         1227    i.PTP_GetArray32    usbh_mtp_ptp.o
    0x0800230a   0x000000f8   Code   RO         1232    i.PTP_GetStorageInfo  usbh_mtp_ptp.o
    0x08002402   0x00000024   Code   RO         1233    i.PTP_GetString     usbh_mtp_ptp.o
    0x08002426   0x000000a6   Code   RO         1410    i.ParseCSDescriptors  usbh_audio.o
    0x080024cc   0x0000000c   Code   RO         4419    i.StartDefaultTask  main.o
    0x080024d8   0x0000000e   Code   RO         4595    i.SysTick_Handler   stm32f4xx_it.o
    0x080024e6   0x00000002   PAD
    0x080024e8   0x00000074   Code   RO         4420    i.SystemClock_Config  main.o
    0x0800255c   0x00000054   Code   RO         4380    i.SystemInit        system_stm32f4xx.o
    0x080025b0   0x00000082   Code   RO         1411    i.USBH_AC_GetCur    usbh_audio.o
    0x08002632   0x00000082   Code   RO         1412    i.USBH_AC_GetMax    usbh_audio.o
    0x080026b4   0x00000082   Code   RO         1413    i.USBH_AC_GetMin    usbh_audio.o
    0x08002736   0x00000082   Code   RO         1414    i.USBH_AC_GetRes    usbh_audio.o
    0x080027b8   0x00000002   Code   RO         1415    i.USBH_AUDIO_BufferEmptyCallback  usbh_audio.o
    0x080027ba   0x00000002   PAD
    0x080027bc   0x000000c6   Code   RO         1416    i.USBH_AUDIO_BuildHeadphonePath  usbh_audio.o
    0x08002882   0x00000002   PAD
    0x08002884   0x00000086   Code   RO         1417    i.USBH_AUDIO_BuildMicrophonePath  usbh_audio.o
    0x0800290a   0x000000d8   Code   RO         1418    i.USBH_AUDIO_CSRequest  usbh_audio.o
    0x080029e2   0x00000128   Code   RO         1420    i.USBH_AUDIO_ClassRequest  usbh_audio.o
    0x08002b0a   0x000000c8   Code   RO         1421    i.USBH_AUDIO_Control  usbh_audio.o
    0x08002bd2   0x00000074   Code   RO         1422    i.USBH_AUDIO_FindAudioStreamingIN  usbh_audio.o
    0x08002c46   0x00000076   Code   RO         1423    i.USBH_AUDIO_FindAudioStreamingOUT  usbh_audio.o
    0x08002cbc   0x00000084   Code   RO         1424    i.USBH_AUDIO_FindHIDControl  usbh_audio.o
    0x08002d40   0x000000e0   Code   RO         1425    i.USBH_AUDIO_FindLinkedUnit  usbh_audio.o
    0x08002e20   0x00000002   Code   RO         1426    i.USBH_AUDIO_FrequencySet  usbh_audio.o
    0x08002e22   0x00000070   Code   RO         1428    i.USBH_AUDIO_InterfaceDeInit  usbh_audio.o
    0x08002e92   0x000001b4   Code   RO         1429    i.USBH_AUDIO_InterfaceInit  usbh_audio.o
    0x08003046   0x0000009e   Code   RO         1430    i.USBH_AUDIO_OutputStream  usbh_audio.o
    0x080030e4   0x0000008c   Code   RO         1431    i.USBH_AUDIO_ParseCSDescriptors  usbh_audio.o
    0x08003170   0x0000001a   Code   RO         1433    i.USBH_AUDIO_Process  usbh_audio.o
    0x0800318a   0x00000004   Code   RO         1435    i.USBH_AUDIO_SOFProcess  usbh_audio.o
    0x0800318e   0x000000bc   Code   RO         1436    i.USBH_AUDIO_SetControlAttribute  usbh_audio.o
    0x0800324a   0x00000020   Code   RO         1437    i.USBH_AUDIO_SetEndpointControls  usbh_audio.o
    0x0800326a   0x000000e2   Code   RO         1442    i.USBH_AUDIO_Transmit  usbh_audio.o
    0x0800334c   0x00000034   Code   RO          409    i.USBH_AllocPipe    usbh_pipes.o
    0x08003380   0x00000020   Code   RO          485    i.USBH_BulkReceiveData  usbh_ioreq.o
    0x080033a0   0x00000028   Code   RO          486    i.USBH_BulkSendData  usbh_ioreq.o
    0x080033c8   0x00000024   Code   RO          753    i.USBH_CDC_ClassRequest  usbh_cdc.o
    0x080033ec   0x0000005e   Code   RO          756    i.USBH_CDC_InterfaceDeInit  usbh_cdc.o
    0x0800344a   0x00000134   Code   RO          757    i.USBH_CDC_InterfaceInit  usbh_cdc.o
    0x0800357e   0x00000002   Code   RO          758    i.USBH_CDC_LineCodingChanged  usbh_cdc.o
    0x08003580   0x000000b8   Code   RO          759    i.USBH_CDC_Process  usbh_cdc.o
    0x08003638   0x00000002   Code   RO          761    i.USBH_CDC_ReceiveCallback  usbh_cdc.o
    0x0800363a   0x00000004   Code   RO          762    i.USBH_CDC_SOFProcess  usbh_cdc.o
    0x0800363e   0x00000002   Code   RO          766    i.USBH_CDC_TransmitCallback  usbh_cdc.o
    0x08003640   0x0000000a   Code   RO          410    i.USBH_ClosePipe    usbh_pipes.o
    0x0800364a   0x0000001e   Code   RO         1136    i.USBH_ClrFeature   usbh_ctlreq.o
    0x08003668   0x0000001e   Code   RO          487    i.USBH_CtlReceiveData  usbh_ioreq.o
    0x08003686   0x0000004a   Code   RO         1137    i.USBH_CtlReq       usbh_ctlreq.o
    0x080036d0   0x00000028   Code   RO          488    i.USBH_CtlSendData  usbh_ioreq.o
    0x080036f8   0x0000001e   Code   RO          489    i.USBH_CtlSendSetup  usbh_ioreq.o
    0x08003716   0x00000004   Code   RO         4639    i.USBH_Delay        usbh_conf.o
    0x0800371a   0x00000044   Code   RO         1008    i.USBH_FindInterface  usbh_core.o
    0x0800375e   0x00000032   Code   RO         1009    i.USBH_FindInterfaceIndex  usbh_core.o
    0x08003790   0x00000018   Code   RO          411    i.USBH_FreePipe     usbh_pipes.o
    0x080037a8   0x00000034   Code   RO         1138    i.USBH_GetDescriptor  usbh_ctlreq.o
    0x080037dc   0x0000000e   Code   RO         1139    i.USBH_GetNextDesc  usbh_ctlreq.o
    0x080037ea   0x0000002c   Code   RO         1140    i.USBH_Get_CfgDesc  usbh_ctlreq.o
    0x08003816   0x0000009a   Code   RO         1141    i.USBH_Get_DevDesc  usbh_ctlreq.o
    0x080038b0   0x00000048   Code   RO         1142    i.USBH_Get_StringDesc  usbh_ctlreq.o
    0x080038f8   0x000000ac   Code   RO          224    i.USBH_HID_ClassRequest  usbh_hid.o
    0x080039a4   0x00000002   Code   RO          225    i.USBH_HID_EventCallback  usbh_hid.o
    0x080039a6   0x00000014   Code   RO          227    i.USBH_HID_GetHIDDescriptor  usbh_hid.o
    0x080039ba   0x00000014   Code   RO          228    i.USBH_HID_GetHIDReportDescriptor  usbh_hid.o
    0x080039ce   0x00000022   Code   RO          230    i.USBH_HID_GetReport  usbh_hid.o
    0x080039f0   0x00000044   Code   RO          231    i.USBH_HID_InterfaceDeInit  usbh_hid.o
    0x08003a34   0x0000015c   Code   RO          232    i.USBH_HID_InterfaceInit  usbh_hid.o
    0x08003b90   0x00000054   Code   RO          963    i.USBH_HID_KeybdInit  usbh_hid_keybd.o
    0x08003be4   0x0000003c   Code   RO          559    i.USBH_HID_MouseInit  usbh_hid_mouse.o
    0x08003c20   0x000000ca   Code   RO          233    i.USBH_HID_Process  usbh_hid.o
    0x08003cea   0x00000030   Code   RO          234    i.USBH_HID_SOFProcess  usbh_hid.o
    0x08003d1a   0x0000001a   Code   RO          235    i.USBH_HID_SetIdle  usbh_hid.o
    0x08003d34   0x0000001e   Code   RO          236    i.USBH_HID_SetProtocol  usbh_hid.o
    0x08003d52   0x0000018c   Code   RO         1143    i.USBH_HandleControl  usbh_ctlreq.o
    0x08003ede   0x00000116   Code   RO         1011    i.USBH_HandleEnum   usbh_core.o
    0x08003ff4   0x00000068   Code   RO         1012    i.USBH_Init         usbh_core.o
    0x0800405c   0x00000020   Code   RO          490    i.USBH_InterruptReceiveData  usbh_ioreq.o
    0x0800407c   0x00000022   Code   RO          493    i.USBH_IsocSendData  usbh_ioreq.o
    0x0800409e   0x0000000e   Code   RO         4640    i.USBH_LL_ClosePipe  usbh_conf.o
    0x080040ac   0x00000038   Code   RO         1013    i.USBH_LL_Connect   usbh_core.o
    0x080040e4   0x00000044   Code   RO         1014    i.USBH_LL_Disconnect  usbh_core.o
    0x08004128   0x0000000c   Code   RO         4642    i.USBH_LL_DriverVBUS  usbh_conf.o
    0x08004134   0x00000008   Code   RO         4643    i.USBH_LL_GetLastXferSize  usbh_conf.o
    0x0800413c   0x00000022   Code   RO         4644    i.USBH_LL_GetSpeed  usbh_conf.o
    0x0800415e   0x0000001e   Code   RO         4645    i.USBH_LL_GetToggle  usbh_conf.o
    0x0800417c   0x00000008   Code   RO         4646    i.USBH_LL_GetURBState  usbh_conf.o
    0x08004184   0x0000001e   Code   RO         1015    i.USBH_LL_IncTimer  usbh_core.o
    0x080041a2   0x00000002   PAD
    0x080041a4   0x00000048   Code   RO         4647    i.USBH_LL_Init      usbh_conf.o
    0x080041ec   0x00000012   Code   RO         1016    i.USBH_LL_NotifyURBChange  usbh_core.o
    0x080041fe   0x00000018   Code   RO         4648    i.USBH_LL_OpenPipe  usbh_conf.o
    0x08004216   0x0000000e   Code   RO         4649    i.USBH_LL_ResetPort  usbh_conf.o
    0x08004224   0x00000006   Code   RO         1017    i.USBH_LL_SetTimer  usbh_core.o
    0x0800422a   0x00000020   Code   RO         4650    i.USBH_LL_SetToggle  usbh_conf.o
    0x0800424a   0x0000000e   Code   RO         4651    i.USBH_LL_Start     usbh_conf.o
    0x08004258   0x0000000e   Code   RO         4652    i.USBH_LL_Stop      usbh_conf.o
    0x08004266   0x00000020   Code   RO         4653    i.USBH_LL_SubmitURB  usbh_conf.o
    0x08004286   0x0000001e   Code   RO            4    i.USBH_MSC_BOT_Abort  usbh_msc_bot.o
    0x080042a4   0x00000024   Code   RO            5    i.USBH_MSC_BOT_Init  usbh_msc_bot.o
    0x080042c8   0x000001fc   Code   RO            6    i.USBH_MSC_BOT_Process  usbh_msc_bot.o
    0x080044c4   0x00000016   Code   RO            7    i.USBH_MSC_BOT_REQ_GetMaxLUN  usbh_msc_bot.o
    0x080044da   0x00000016   Code   RO            8    i.USBH_MSC_BOT_REQ_Reset  usbh_msc_bot.o
    0x080044f0   0x0000006c   Code   RO          869    i.USBH_MSC_ClassRequest  usbh_msc.o
    0x0800455c   0x0000004a   Code   RO          872    i.USBH_MSC_InterfaceDeInit  usbh_msc.o
    0x080045a6   0x0000014c   Code   RO          873    i.USBH_MSC_InterfaceInit  usbh_msc.o
    0x080046f2   0x000002a8   Code   RO          875    i.USBH_MSC_Process  usbh_msc.o
    0x0800499a   0x000000c0   Code   RO          355    i.USBH_MSC_SCSI_Inquiry  usbh_msc_scsi.o
    0x08004a5a   0x0000007a   Code   RO          357    i.USBH_MSC_SCSI_ReadCapacity  usbh_msc_scsi.o
    0x08004ad4   0x00000092   Code   RO          358    i.USBH_MSC_SCSI_RequestSense  usbh_msc_scsi.o
    0x08004b66   0x0000004c   Code   RO          359    i.USBH_MSC_SCSI_TestUnitReady  usbh_msc_scsi.o
    0x08004bb2   0x00000004   Code   RO          878    i.USBH_MSC_SOFProcess  usbh_msc.o
    0x08004bb6   0x00000012   Code   RO          596    i.USBH_MTP_ClassRequest  usbh_mtp.o
    0x08004bc8   0x000000a4   Code   RO          598    i.USBH_MTP_Events   usbh_mtp.o
    0x08004c6c   0x00000002   Code   RO          599    i.USBH_MTP_EventsCallback  usbh_mtp.o
    0x08004c6e   0x00000074   Code   RO          611    i.USBH_MTP_InterfaceDeInit  usbh_mtp.o
    0x08004ce2   0x00000002   PAD
    0x08004ce4   0x0000021c   Code   RO          612    i.USBH_MTP_InterfaceInit  usbh_mtp.o
    0x08004f00   0x000000fc   Code   RO          614    i.USBH_MTP_Process  usbh_mtp.o
    0x08004ffc   0x00000004   Code   RO          615    i.USBH_MTP_SOFProcess  usbh_mtp.o
    0x08005000   0x00000014   Code   RO          412    i.USBH_OpenPipe     usbh_pipes.o
    0x08005014   0x0000009a   Code   RO         1235    i.USBH_PTP_GetDeviceInfo  usbh_mtp_ptp.o
    0x080050ae   0x00000036   Code   RO         1245    i.USBH_PTP_GetResponse  usbh_mtp_ptp.o
    0x080050e4   0x000000a8   Code   RO         1246    i.USBH_PTP_GetStorageIds  usbh_mtp_ptp.o
    0x0800518c   0x000000a6   Code   RO         1247    i.USBH_PTP_GetStorageInfo  usbh_mtp_ptp.o
    0x08005232   0x0000001a   Code   RO         1248    i.USBH_PTP_Init     usbh_mtp_ptp.o
    0x0800524c   0x0000007a   Code   RO         1249    i.USBH_PTP_OpenSession  usbh_mtp_ptp.o
    0x080052c6   0x00000002   PAD
    0x080052c8   0x0000024c   Code   RO         1250    i.USBH_PTP_Process  usbh_mtp_ptp.o
    0x08005514   0x00000056   Code   RO         1252    i.USBH_PTP_SendRequest  usbh_mtp_ptp.o
    0x0800556a   0x000000e8   Code   RO         1144    i.USBH_ParseCfgDesc  usbh_ctlreq.o
    0x08005652   0x00000180   Code   RO         1018    i.USBH_Process      usbh_core.o
    0x080057d2   0x00000022   Code   RO         1019    i.USBH_Process_OS   usbh_core.o
    0x080057f4   0x00000024   Code   RO         1021    i.USBH_RegisterClass  usbh_core.o
    0x08005818   0x00000016   Code   RO         1022    i.USBH_SelectInterface  usbh_core.o
    0x0800582e   0x0000001c   Code   RO         1145    i.USBH_SetAddress   usbh_ctlreq.o
    0x0800584a   0x0000001c   Code   RO         1146    i.USBH_SetCfg       usbh_ctlreq.o
    0x08005866   0x0000001c   Code   RO         1147    i.USBH_SetInterface  usbh_ctlreq.o
    0x08005882   0x00000014   Code   RO         1023    i.USBH_Start        usbh_core.o
    0x08005896   0x00000002   PAD
    0x08005898   0x00000020   Code   RO         4500    i.USBH_UserProcess  usb_host.o
    0x080058b8   0x0000006c   Code   RO         3129    i.USB_CoreInit      stm32f4xx_ll_usb.o
    0x08005924   0x00000038   Code   RO         3130    i.USB_CoreReset     stm32f4xx_ll_usb.o
    0x0800595c   0x0000000c   Code   RO         3136    i.USB_DisableGlobalInt  stm32f4xx_ll_usb.o
    0x08005968   0x00000054   Code   RO         3137    i.USB_DoPing        stm32f4xx_ll_usb.o
    0x080059bc   0x0000002c   Code   RO         3138    i.USB_DriveVbus     stm32f4xx_ll_usb.o
    0x080059e8   0x0000000c   Code   RO         3144    i.USB_EnableGlobalInt  stm32f4xx_ll_usb.o
    0x080059f4   0x00000020   Code   RO         3145    i.USB_FlushRxFifo   stm32f4xx_ll_usb.o
    0x08005a14   0x00000024   Code   RO         3146    i.USB_FlushTxFifo   stm32f4xx_ll_usb.o
    0x08005a38   0x00000008   Code   RO         3147    i.USB_GetCurrentFrame  stm32f4xx_ll_usb.o
    0x08005a40   0x0000000e   Code   RO         3149    i.USB_GetHostSpeed  stm32f4xx_ll_usb.o
    0x08005a4e   0x00000008   Code   RO         3150    i.USB_GetMode       stm32f4xx_ll_usb.o
    0x08005a56   0x00000178   Code   RO         3151    i.USB_HC_Halt       stm32f4xx_ll_usb.o
    0x08005bce   0x00000002   PAD
    0x08005bd0   0x000000ea   Code   RO         3152    i.USB_HC_Init       stm32f4xx_ll_usb.o
    0x08005cba   0x0000000c   Code   RO         3153    i.USB_HC_ReadInterrupt  stm32f4xx_ll_usb.o
    0x08005cc6   0x00000002   PAD
    0x08005cc8   0x00000190   Code   RO         3154    i.USB_HC_StartXfer  stm32f4xx_ll_usb.o
    0x08005e58   0x000000d4   Code   RO         3155    i.USB_HostInit      stm32f4xx_ll_usb.o
    0x08005f2c   0x00000036   Code   RO         3156    i.USB_InitFSLSPClkSel  stm32f4xx_ll_usb.o
    0x08005f62   0x00000008   Code   RO         3161    i.USB_ReadInterrupts  stm32f4xx_ll_usb.o
    0x08005f6a   0x00000020   Code   RO         3162    i.USB_ReadPacket    stm32f4xx_ll_usb.o
    0x08005f8a   0x0000002c   Code   RO         3163    i.USB_ResetPort     stm32f4xx_ll_usb.o
    0x08005fb6   0x0000002c   Code   RO         3164    i.USB_SetCurrentMode  stm32f4xx_ll_usb.o
    0x08005fe2   0x000000b2   Code   RO         3168    i.USB_StopHost      stm32f4xx_ll_usb.o
    0x08006094   0x00000028   Code   RO         3169    i.USB_WritePacket   stm32f4xx_ll_usb.o
    0x080060bc   0x0000000e   Code   RO         4840    i.__scatterload_copy  mc_w.l(handlers.o)
    0x080060ca   0x00000002   Code   RO         4841    i.__scatterload_null  mc_w.l(handlers.o)
    0x080060cc   0x0000000e   Code   RO         4842    i.__scatterload_zeroinit  mc_w.l(handlers.o)
    0x080060da   0x0000000e   Code   RO          238    i.fifo_init         usbh_hid.o
    0x080060e8   0x00000050   Code   RO          240    i.fifo_write        usbh_hid.o
    0x08006138   0x00000050   Code   RO         4792    i.free              mc_w.l(malloc.o)
    0x08006188   0x0000000c   Code   RO         3781    i.inHandlerMode     cmsis_os.o
    0x08006194   0x00000068   Code   RO         4421    i.main              main.o
    0x080061fc   0x0000000c   Code   RO         3782    i.makeFreeRtosPriority  cmsis_os.o
    0x08006208   0x0000006c   Code   RO         4793    i.malloc            mc_w.l(malloc.o)
    0x08006274   0x0000000e   Code   RO         3783    i.osDelay           cmsis_os.o
    0x08006282   0x0000000a   Code   RO         3786    i.osKernelStart     cmsis_os.o
    0x0800628c   0x0000000a   Code   RO         3788    i.osMessageCreate   cmsis_os.o
    0x08006296   0x00000002   PAD
    0x08006298   0x0000008c   Code   RO         3789    i.osMessageGet      cmsis_os.o
    0x08006324   0x00000054   Code   RO         3791    i.osMessagePut      cmsis_os.o
    0x08006378   0x00000014   Code   RO         3807    i.osSystickHandler  cmsis_os.o
    0x0800638c   0x00000038   Code   RO         3808    i.osThreadCreate    cmsis_os.o
    0x080063c4   0x00000034   Code   RO         3493    i.prvAddCurrentTaskToDelayedList  tasks.o
    0x080063f8   0x00000054   Code   RO         3494    i.prvCheckTasksWaitingTermination  tasks.o
    0x0800644c   0x00000026   Code   RO         4220    i.prvCopyDataFromQueue  queue.o
    0x08006472   0x0000006e   Code   RO         4221    i.prvCopyDataToQueue  queue.o
    0x080064e0   0x0000004c   Code   RO         4171    i.prvHeapInit       heap_4.o
    0x0800652c   0x00000018   Code   RO         3495    i.prvIdleTask       tasks.o
    0x08006544   0x0000004c   Code   RO         4172    i.prvInsertBlockIntoFreeList  heap_4.o
    0x08006590   0x00000020   Code   RO         3497    i.prvResetNextTaskUnblockTime  tasks.o
    0x080065b0   0x00000018   Code   RO         3413    i.prvTaskExitError  port.o
    0x080065c8   0x00000064   Code   RO         4222    i.prvUnlockQueue    queue.o
    0x0800662c   0x000000bc   Code   RO         4173    i.pvPortMalloc      heap_4.o
    0x080066e8   0x00000018   Code   RO         3499    i.pvTaskIncrementMutexHeldCount  tasks.o
    0x08006700   0x00000028   Code   RO         3414    i.pxPortInitialiseStack  port.o
    0x08006728   0x00000024   Code   RO         3745    i.uxListRemove      list.o
    0x0800674c   0x00000016   Code   RO         3746    i.vListInitialise   list.o
    0x08006762   0x00000006   Code   RO         3747    i.vListInitialiseItem  list.o
    0x08006768   0x00000030   Code   RO         3748    i.vListInsert       list.o
    0x08006798   0x00000018   Code   RO         3749    i.vListInsertEnd    list.o
    0x080067b0   0x00000034   Code   RO         3416    i.vPortEnterCritical  port.o
    0x080067e4   0x00000024   Code   RO         3417    i.vPortExitCritical  port.o
    0x08006808   0x00000048   Code   RO         4174    i.vPortFree         heap_4.o
    0x08006850   0x00000020   Code   RO         3418    i.vPortSetupTimerInterrupt  port.o
    0x08006870   0x00000040   Code   RO         3419    i.vPortValidateInterruptPriority  port.o
    0x080068b0   0x00000018   Code   RO         3420    i.vPortYield        port.o
    0x080068c8   0x00000050   Code   RO         3505    i.vTaskDelay        tasks.o
    0x08006918   0x0000000c   Code   RO         3508    i.vTaskMissedYield  tasks.o
    0x08006924   0x00000058   Code   RO         3509    i.vTaskPlaceOnEventList  tasks.o
    0x0800697c   0x00000084   Code   RO         3511    i.vTaskPriorityInherit  tasks.o
    0x08006a00   0x0000001c   Code   RO         3515    i.vTaskSetTimeOutState  tasks.o
    0x08006a1c   0x0000004c   Code   RO         3516    i.vTaskStartScheduler  tasks.o
    0x08006a68   0x00000010   Code   RO         3518    i.vTaskSuspendAll   tasks.o
    0x08006a78   0x00000054   Code   RO         3519    i.vTaskSwitchContext  tasks.o
    0x08006acc   0x00000138   Code   RO         4422    i.vTask_ControlLamps  main.o
    0x08006c04   0x00000084   Code   RO         3421    i.xPortStartScheduler  port.o
    0x08006c88   0x00000024   Code   RO         3422    i.xPortSysTickHandler  port.o
    0x08006cac   0x00000046   Code   RO         4234    i.xQueueGenericCreate  queue.o
    0x08006cf2   0x00000002   PAD
    0x08006cf4   0x0000012e   Code   RO         4235    i.xQueueGenericReceive  queue.o
    0x08006e22   0x0000006a   Code   RO         4236    i.xQueueGenericReset  queue.o
    0x08006e8c   0x00000114   Code   RO         4237    i.xQueueGenericSend  queue.o
    0x08006fa0   0x00000092   Code   RO         4238    i.xQueueGenericSendFromISR  queue.o
    0x08007032   0x00000076   Code   RO         4243    i.xQueueReceiveFromISR  queue.o
    0x080070a8   0x00000058   Code   RO         3520    i.xTaskCheckForTimeOut  tasks.o
    0x08007100   0x00000184   Code   RO         3521    i.xTaskGenericCreate  tasks.o
    0x08007284   0x0000001c   Code   RO         3523    i.xTaskGetSchedulerState  tasks.o
    0x080072a0   0x000000c0   Code   RO         3526    i.xTaskIncrementTick  tasks.o
    0x08007360   0x00000078   Code   RO         3527    i.xTaskPriorityDisinherit  tasks.o
    0x080073d8   0x0000006c   Code   RO         3528    i.xTaskRemoveFromEventList  tasks.o
    0x08007444   0x000000ac   Code   RO         3530    i.xTaskResumeAll    tasks.o
    0x080074f0   0x0000001c   Data   RO         1025    .constdata          usbh_core.o
    0x0800750c   0x00000010   Data   RO         2380    .constdata          stm32f4xx_hal_rcc.o
    0x0800751c   0x00000014   Data   RO         4425    .constdata          main.o
    0x08007530   0x00000004   Data   RO          241    .conststring        usbh_hid.o
    0x08007534   0x00000004   Data   RO          618    .conststring        usbh_mtp.o
    0x08007538   0x00000004   Data   RO          767    .conststring        usbh_cdc.o
    0x0800753c   0x00000004   Data   RO          881    .conststring        usbh_msc.o
    0x08007540   0x0000000c   Data   RO         1026    .conststring        usbh_core.o
    0x0800754c   0x00000006   Data   RO         1443    .conststring        usbh_audio.o
    0x08007552   0x00000002   PAD
    0x08007554   0x0000000c   Data   RO         4426    .conststring        main.o
    0x08007560   0x00000020   Data   RO         4838    Region$$Table       anon$$obj.o


    Execution Region RW_IRAM1 (Base: 0x20000000, Size: 0x00004d58, Max: 0x00020000, ABSOLUTE, COMPRESSED[0x00000094])

    Base Addr    Size         Type   Attr      Idx    E Section Name        Object

    0x20000000   0x00000020   Data   RW          242    .data               usbh_hid.o
    0x20000020   0x00000009   Data   RW          561    .data               usbh_hid_mouse.o
    0x20000029   0x00000003   PAD
    0x2000002c   0x00000020   Data   RW          619    .data               usbh_mtp.o
    0x2000004c   0x00000020   Data   RW          768    .data               usbh_cdc.o
    0x2000006c   0x00000020   Data   RW          882    .data               usbh_msc.o
    0x2000008c   0x00000008   Data   RW          966    .data               usbh_hid_keybd.o
    0x20000094   0x00000020   Data   RW         1444    .data               usbh_audio.o
    0x200000b4   0x00000004   Data   RW         1631    .data               stm32f4xx_hal.o
    0x200000b8   0x0000000c   Data   RW         3423    .data               port.o
    0x200000c4   0x00000038   Data   RW         3533    .data               tasks.o
    0x200000fc   0x00000018   Data   RW         4179    .data               heap_4.o
    0x20000114   0x00000014   Data   RW         4381    .data               system_stm32f4xx.o
    0x20000128   0x00000004   Data   RW         4427    .data               main.o
    0x2000012c   0x00000001   Data   RW         4502    .data               usb_host.o
    0x2000012d   0x00000003   PAD
    0x20000130   0x00000004   Data   RW         4834    .data               mc_w.l(mvars.o)
    0x20000134   0x00000004   Data   RW         4835    .data               mc_w.l(mvars.o)
    0x20000138   0x0000000f   Zero   RW          964    .bss                usbh_hid_keybd.o
    0x20000147   0x00000001   PAD
    0x20000148   0x000000f0   Zero   RW         3532    .bss                tasks.o
    0x20000238   0x00003c00   Zero   RW         4178    .bss                heap_4.o
    0x20003e38   0x000000ec   Zero   RW         4424    .bss                main.o
    0x20003f24   0x000005a0   Zero   RW         4501    .bss                usb_host.o
    0x200044c4   0x00000294   Zero   RW         4654    .bss                usbh_conf.o
    0x20004758   0x00000200   Zero   RW         3406    HEAP                startup_stm32f407xx.o
    0x20004958   0x00000400   Zero   RW         3405    STACK               startup_stm32f407xx.o


==============================================================================

Image component sizes


      Code (inc. data)   RO Data    RW Data    ZI Data      Debug   Object Name

       358         12          0          0          0      11590   cmsis_os.o
       412         24          0         24      15360       4283   heap_4.o
       136          0          0          0          0       3530   list.o
      1192         96         32          4        236       6758   main.o
       638         84          0         12          0       9438   port.o
      1266          0          0          0          0       9848   queue.o
        36          8        392          0       1536        952   startup_stm32f407xx.o
       136         16          0          4          0       4338   stm32f4xx_hal.o
       702         22          0          0          0       2695   stm32f4xx_hal_adc.o
       690         10          0          0          0       3111   stm32f4xx_hal_can.o
       194         14          0          0          0      30031   stm32f4xx_hal_cortex.o
       458         50          0          0          0       2388   stm32f4xx_hal_gpio.o
      2256          4          0          0          0      12525   stm32f4xx_hal_hcd.o
       230         36          0          0          0       2314   stm32f4xx_hal_msp.o
      1516         54         16          0          0       4989   stm32f4xx_hal_rcc.o
       154         18          0          0          0       1612   stm32f4xx_it.o
      2048         48          0          0          0      16755   stm32f4xx_ll_usb.o
        84         18          0         20          0       1429   system_stm32f4xx.o
      1828        146          0         56        240      19924   tasks.o
       124         34          0          1       1440       2040   usb_host.o
      3646         28          6         32          0      30726   usbh_audio.o
       904          6          4         32          0      12548   usbh_cdc.o
       464         14          0          0        660      11372   usbh_conf.o
      1246         26         40          0          0      11556   usbh_core.o
      1152         12          0          0          0       9820   usbh_ctlreq.o
      1064         24          4         32          0      20545   usbh_hid.o
        84          8          0          8         15       2156   usbh_hid_keybd.o
        60          4          0          9          0       1740   usbh_hid_mouse.o
         0          0          0          0          0       3760   usbh_hid_parser.o
       238          0          0          0          0       5488   usbh_ioreq.o
      1198         10          4         32          0       6083   usbh_msc.o
       618         26          0          0          0     383528   usbh_msc_bot.o
       536          0          0          0          0       3856   usbh_msc_scsi.o
      1096          6          4         32          0      28922   usbh_mtp.o
      2200         10          0          0          0      13788   usbh_mtp_ptp.o
       106          0          0          0          0       3270   usbh_pipes.o

    ----------------------------------------------------------------------
     29110        868        536        304      19488     699708   Object Totals
         0          0         32          0          0          0   (incl. Generated)
        40          0          2          6          1          0   (incl. Padding)

    ----------------------------------------------------------------------

      Code (inc. data)   RO Data    RW Data    ZI Data      Debug   Library Member Name

        86          0          0          0          0          0   __dczerorl2.o
         0          0          0          0          0          0   entry.o
         0          0          0          0          0          0   entry10a.o
         0          0          0          0          0          0   entry11a.o
         8          4          0          0          0          0   entry2.o
         4          0          0          0          0          0   entry5.o
         0          0          0          0          0          0   entry7b.o
         0          0          0          0          0          0   entry8b.o
         8          4          0          0          0          0   entry9a.o
        30          0          0          0          0          0   handlers.o
        36          8          0          0          0         68   init.o
       188         20          0          0          0        160   malloc.o
        36          0          0          0          0         68   memcpya.o
        36          0          0          0          0        108   memseta.o
         0          0          0          8          0          0   mvars.o

    ----------------------------------------------------------------------
       434         36          0          8          0        404   Library Totals
         2          0          0          0          0          0   (incl. Padding)

    ----------------------------------------------------------------------

      Code (inc. data)   RO Data    RW Data    ZI Data      Debug   Library Name

       432         36          0          8          0        404   mc_w.l

    ----------------------------------------------------------------------
       434         36          0          8          0        404   Library Totals

    ----------------------------------------------------------------------

==============================================================================


      Code (inc. data)   RO Data    RW Data    ZI Data      Debug   

     29544        904        536        312      19488     673240   Grand Totals
     29544        904        536        148      19488     673240   ELF Image Totals (compressed)
     29544        904        536        148          0          0   ROM Totals

==============================================================================

    Total RO  Size (Code + RO Data)                30080 (  29.38kB)
    Total RW  Size (RW Data + ZI Data)             19800 (  19.34kB)
    Total ROM Size (Code + RO Data + RW Data)      30228 (  29.52kB)

==============================================================================

